
Debug/snake:     file format elf32-littlearm


Disassembly of section .text:

20000000 <startup>:
 * STARTUP
 */
__attribute__((naked)) __attribute__((section (".start_section")) )
void startup ( void )
{
__asm__ volatile(" LDR R0,=0x2001C000\n");		/* set stack */
20000000:	4802      	ldr	r0, [pc, #8]	; (2000000c <startup+0xc>)
__asm__ volatile(" MOV SP,R0\n");
20000002:	4685      	mov	sp, r0
__asm__ volatile(" BL main\n");					/* call main */
20000004:	f000 fbd9 	bl	200007ba <main>
__asm__ volatile(".L1: B .L1\n");				/* never return */
20000008:	e7fe      	b.n	20000008 <startup+0x8>
}
2000000a:	46c0      	nop			; (mov r8, r8)
2000000c:	2001c000 	andcs	ip, r1, r0

20000010 <delay_250ns>:
#include "declarations.h"
/*
 * SYS_TICK
 */
void delay_250ns( void )
{
20000010:	b580      	push	{r7, lr}
20000012:	af00      	add	r7, sp, #0
/* SystemCoreClock = 168000000 */
	*STK_CTRL = 0;
20000014:	4b0c      	ldr	r3, [pc, #48]	; (20000048 <delay_250ns+0x38>)
20000016:	2200      	movs	r2, #0
20000018:	601a      	str	r2, [r3, #0]
	*STK_LOAD = ( (168/4) -1 );
2000001a:	4b0c      	ldr	r3, [pc, #48]	; (2000004c <delay_250ns+0x3c>)
2000001c:	2229      	movs	r2, #41	; 0x29
2000001e:	601a      	str	r2, [r3, #0]
	*STK_VAL = 0;
20000020:	4b0b      	ldr	r3, [pc, #44]	; (20000050 <delay_250ns+0x40>)
20000022:	2200      	movs	r2, #0
20000024:	601a      	str	r2, [r3, #0]
	*STK_CTRL = 5;
20000026:	4b08      	ldr	r3, [pc, #32]	; (20000048 <delay_250ns+0x38>)
20000028:	2205      	movs	r2, #5
2000002a:	601a      	str	r2, [r3, #0]
	while( (*STK_CTRL & 0x10000 )== 0 );
2000002c:	46c0      	nop			; (mov r8, r8)
2000002e:	4b06      	ldr	r3, [pc, #24]	; (20000048 <delay_250ns+0x38>)
20000030:	681a      	ldr	r2, [r3, #0]
20000032:	2380      	movs	r3, #128	; 0x80
20000034:	025b      	lsls	r3, r3, #9
20000036:	4013      	ands	r3, r2
20000038:	d0f9      	beq.n	2000002e <delay_250ns+0x1e>
	*STK_CTRL = 0;
2000003a:	4b03      	ldr	r3, [pc, #12]	; (20000048 <delay_250ns+0x38>)
2000003c:	2200      	movs	r2, #0
2000003e:	601a      	str	r2, [r3, #0]
}
20000040:	46c0      	nop			; (mov r8, r8)
20000042:	46bd      	mov	sp, r7
20000044:	bd80      	pop	{r7, pc}
20000046:	46c0      	nop			; (mov r8, r8)
20000048:	e000e010 	and	lr, r0, r0, lsl r0
2000004c:	e000e014 	and	lr, r0, r4, lsl r0
20000050:	e000e018 	and	lr, r0, r8, lsl r0

20000054 <delay_micro>:

void delay_micro(unsigned int us)
{
20000054:	b580      	push	{r7, lr}
20000056:	b084      	sub	sp, #16
20000058:	af00      	add	r7, sp, #0
2000005a:	6078      	str	r0, [r7, #4]
#ifdef SIMULATOR
	us = us/1000;
2000005c:	687b      	ldr	r3, [r7, #4]
2000005e:	22fa      	movs	r2, #250	; 0xfa
20000060:	0091      	lsls	r1, r2, #2
20000062:	0018      	movs	r0, r3
20000064:	f000 fe26 	bl	20000cb4 <__udivsi3>
20000068:	0003      	movs	r3, r0
2000006a:	607b      	str	r3, [r7, #4]
	us++;
2000006c:	687b      	ldr	r3, [r7, #4]
2000006e:	3301      	adds	r3, #1
20000070:	607b      	str	r3, [r7, #4]
#endif
	while( us > 0 )
20000072:	e00d      	b.n	20000090 <delay_micro+0x3c>
	{
		for(int i = 0; i<4; i++) delay_250ns();
20000074:	2300      	movs	r3, #0
20000076:	60fb      	str	r3, [r7, #12]
20000078:	e004      	b.n	20000084 <delay_micro+0x30>
2000007a:	f7ff ffc9 	bl	20000010 <delay_250ns>
2000007e:	68fb      	ldr	r3, [r7, #12]
20000080:	3301      	adds	r3, #1
20000082:	60fb      	str	r3, [r7, #12]
20000084:	68fb      	ldr	r3, [r7, #12]
20000086:	2b03      	cmp	r3, #3
20000088:	ddf7      	ble.n	2000007a <delay_micro+0x26>
		us--;
2000008a:	687b      	ldr	r3, [r7, #4]
2000008c:	3b01      	subs	r3, #1
2000008e:	607b      	str	r3, [r7, #4]
	while( us > 0 )
20000090:	687b      	ldr	r3, [r7, #4]
20000092:	2b00      	cmp	r3, #0
20000094:	d1ee      	bne.n	20000074 <delay_micro+0x20>
	}
}
20000096:	46c0      	nop			; (mov r8, r8)
20000098:	46c0      	nop			; (mov r8, r8)
2000009a:	46bd      	mov	sp, r7
2000009c:	b004      	add	sp, #16
2000009e:	bd80      	pop	{r7, pc}

200000a0 <delay_milli>:

void delay_milli(unsigned int ms) {
200000a0:	b580      	push	{r7, lr}
200000a2:	b082      	sub	sp, #8
200000a4:	af00      	add	r7, sp, #0
200000a6:	6078      	str	r0, [r7, #4]
	while( ms > 0 )
200000a8:	e005      	b.n	200000b6 <delay_milli+0x16>
	{
		delay_micro(100);
200000aa:	2064      	movs	r0, #100	; 0x64
200000ac:	f7ff ffd2 	bl	20000054 <delay_micro>
		ms--;
200000b0:	687b      	ldr	r3, [r7, #4]
200000b2:	3b01      	subs	r3, #1
200000b4:	607b      	str	r3, [r7, #4]
	while( ms > 0 )
200000b6:	687b      	ldr	r3, [r7, #4]
200000b8:	2b00      	cmp	r3, #0
200000ba:	d1f6      	bne.n	200000aa <delay_milli+0xa>
	}
}
200000bc:	46c0      	nop			; (mov r8, r8)
200000be:	46c0      	nop			; (mov r8, r8)
200000c0:	46bd      	mov	sp, r7
200000c2:	b002      	add	sp, #8
200000c4:	bd80      	pop	{r7, pc}

200000c6 <random_number>:

/*
 * TIM6 for randomizing number
 */
 int random_number(int min, int max)
 {
200000c6:	b580      	push	{r7, lr}
200000c8:	b084      	sub	sp, #16
200000ca:	af00      	add	r7, sp, #0
200000cc:	6078      	str	r0, [r7, #4]
200000ce:	6039      	str	r1, [r7, #0]
	short random = (char) *TIM6_CNT;
200000d0:	4b0f      	ldr	r3, [pc, #60]	; (20000110 <random_number+0x4a>)
200000d2:	881b      	ldrh	r3, [r3, #0]
200000d4:	b29b      	uxth	r3, r3
200000d6:	b2da      	uxtb	r2, r3
200000d8:	210e      	movs	r1, #14
200000da:	187b      	adds	r3, r7, r1
200000dc:	801a      	strh	r2, [r3, #0]
	unsigned char c = random % (max-min+1) + min; 
200000de:	187b      	adds	r3, r7, r1
200000e0:	2000      	movs	r0, #0
200000e2:	5e18      	ldrsh	r0, [r3, r0]
200000e4:	683a      	ldr	r2, [r7, #0]
200000e6:	687b      	ldr	r3, [r7, #4]
200000e8:	1ad3      	subs	r3, r2, r3
200000ea:	3301      	adds	r3, #1
200000ec:	0019      	movs	r1, r3
200000ee:	f000 ff51 	bl	20000f94 <__aeabi_idivmod>
200000f2:	000b      	movs	r3, r1
200000f4:	b2d9      	uxtb	r1, r3
200000f6:	687b      	ldr	r3, [r7, #4]
200000f8:	b2da      	uxtb	r2, r3
200000fa:	200d      	movs	r0, #13
200000fc:	183b      	adds	r3, r7, r0
200000fe:	188a      	adds	r2, r1, r2
20000100:	701a      	strb	r2, [r3, #0]
	return c;
20000102:	183b      	adds	r3, r7, r0
20000104:	781b      	ldrb	r3, [r3, #0]
 }
20000106:	0018      	movs	r0, r3
20000108:	46bd      	mov	sp, r7
2000010a:	b004      	add	sp, #16
2000010c:	bd80      	pop	{r7, pc}
2000010e:	46c0      	nop			; (mov r8, r8)
20000110:	40001024 	andmi	r1, r0, r4, lsr #32

20000114 <ascii_ctrl_bit_set>:
#define B_RW     2
#define B_RS     1

//ASCII------------------------------
void ascii_ctrl_bit_set ( char x )
{
20000114:	b580      	push	{r7, lr}
20000116:	b084      	sub	sp, #16
20000118:	af00      	add	r7, sp, #0
2000011a:	0002      	movs	r2, r0
2000011c:	1dfb      	adds	r3, r7, #7
2000011e:	701a      	strb	r2, [r3, #0]
	char c;
	c = GPIO_E.odrLow;
20000120:	4a09      	ldr	r2, [pc, #36]	; (20000148 <ascii_ctrl_bit_set+0x34>)
20000122:	210f      	movs	r1, #15
20000124:	187b      	adds	r3, r7, r1
20000126:	7d12      	ldrb	r2, [r2, #20]
20000128:	701a      	strb	r2, [r3, #0]
	GPIO_E.odrLow = B_SELECT | x | c;
2000012a:	1dfa      	adds	r2, r7, #7
2000012c:	187b      	adds	r3, r7, r1
2000012e:	7812      	ldrb	r2, [r2, #0]
20000130:	781b      	ldrb	r3, [r3, #0]
20000132:	4313      	orrs	r3, r2
20000134:	b2db      	uxtb	r3, r3
20000136:	4a04      	ldr	r2, [pc, #16]	; (20000148 <ascii_ctrl_bit_set+0x34>)
20000138:	2104      	movs	r1, #4
2000013a:	430b      	orrs	r3, r1
2000013c:	b2db      	uxtb	r3, r3
2000013e:	7513      	strb	r3, [r2, #20]
}
20000140:	46c0      	nop			; (mov r8, r8)
20000142:	46bd      	mov	sp, r7
20000144:	b004      	add	sp, #16
20000146:	bd80      	pop	{r7, pc}
20000148:	40021000 	andmi	r1, r2, r0

2000014c <ascii_ctrl_bit_clear>:

void ascii_ctrl_bit_clear ( char x )
{
2000014c:	b580      	push	{r7, lr}
2000014e:	b084      	sub	sp, #16
20000150:	af00      	add	r7, sp, #0
20000152:	0002      	movs	r2, r0
20000154:	1dfb      	adds	r3, r7, #7
20000156:	701a      	strb	r2, [r3, #0]
	char c;
	c = GPIO_E.odrLow;
20000158:	4a0d      	ldr	r2, [pc, #52]	; (20000190 <ascii_ctrl_bit_clear+0x44>)
2000015a:	210f      	movs	r1, #15
2000015c:	187b      	adds	r3, r7, r1
2000015e:	7d12      	ldrb	r2, [r2, #20]
20000160:	701a      	strb	r2, [r3, #0]
	c = c & ~x;
20000162:	1dfb      	adds	r3, r7, #7
20000164:	781b      	ldrb	r3, [r3, #0]
20000166:	b25b      	sxtb	r3, r3
20000168:	43db      	mvns	r3, r3
2000016a:	b25b      	sxtb	r3, r3
2000016c:	187a      	adds	r2, r7, r1
2000016e:	7812      	ldrb	r2, [r2, #0]
20000170:	b252      	sxtb	r2, r2
20000172:	4013      	ands	r3, r2
20000174:	b25a      	sxtb	r2, r3
20000176:	187b      	adds	r3, r7, r1
20000178:	701a      	strb	r2, [r3, #0]
	GPIO_E.odrLow = B_SELECT | c;
2000017a:	4a05      	ldr	r2, [pc, #20]	; (20000190 <ascii_ctrl_bit_clear+0x44>)
2000017c:	187b      	adds	r3, r7, r1
2000017e:	781b      	ldrb	r3, [r3, #0]
20000180:	2104      	movs	r1, #4
20000182:	430b      	orrs	r3, r1
20000184:	b2db      	uxtb	r3, r3
20000186:	7513      	strb	r3, [r2, #20]
}
20000188:	46c0      	nop			; (mov r8, r8)
2000018a:	46bd      	mov	sp, r7
2000018c:	b004      	add	sp, #16
2000018e:	bd80      	pop	{r7, pc}
20000190:	40021000 	andmi	r1, r2, r0

20000194 <ascii_write_controller>:
//time sensitive functions
void ascii_write_controller ( unsigned char c )
{
20000194:	b580      	push	{r7, lr}
20000196:	b082      	sub	sp, #8
20000198:	af00      	add	r7, sp, #0
2000019a:	0002      	movs	r2, r0
2000019c:	1dfb      	adds	r3, r7, #7
2000019e:	701a      	strb	r2, [r3, #0]
	//delay 40ns (small delay, no need)
	ascii_ctrl_bit_set(B_E);
200001a0:	2040      	movs	r0, #64	; 0x40
200001a2:	f7ff ffb7 	bl	20000114 <ascii_ctrl_bit_set>
	GPIO_E.odrHigh = c;
200001a6:	4a06      	ldr	r2, [pc, #24]	; (200001c0 <ascii_write_controller+0x2c>)
200001a8:	1dfb      	adds	r3, r7, #7
200001aa:	781b      	ldrb	r3, [r3, #0]
200001ac:	7553      	strb	r3, [r2, #21]
	delay_250ns();
200001ae:	f7ff ff2f 	bl	20000010 <delay_250ns>
	ascii_ctrl_bit_clear(B_E);
200001b2:	2040      	movs	r0, #64	; 0x40
200001b4:	f7ff ffca 	bl	2000014c <ascii_ctrl_bit_clear>
	//delay 10ns
}
200001b8:	46c0      	nop			; (mov r8, r8)
200001ba:	46bd      	mov	sp, r7
200001bc:	b002      	add	sp, #8
200001be:	bd80      	pop	{r7, pc}
200001c0:	40021000 	andmi	r1, r2, r0

200001c4 <ascii_read_controller>:

char ascii_read_controller ( void )
{
200001c4:	b580      	push	{r7, lr}
200001c6:	b082      	sub	sp, #8
200001c8:	af00      	add	r7, sp, #0
	char c;
	ascii_ctrl_bit_set(B_E);
200001ca:	2040      	movs	r0, #64	; 0x40
200001cc:	f7ff ffa2 	bl	20000114 <ascii_ctrl_bit_set>
	delay_250ns;
	delay_250ns;
	c=GPIO_E.idrHigh;
200001d0:	4a06      	ldr	r2, [pc, #24]	; (200001ec <ascii_read_controller+0x28>)
200001d2:	1dfb      	adds	r3, r7, #7
200001d4:	7c52      	ldrb	r2, [r2, #17]
200001d6:	701a      	strb	r2, [r3, #0]
	ascii_ctrl_bit_clear(B_E);
200001d8:	2040      	movs	r0, #64	; 0x40
200001da:	f7ff ffb7 	bl	2000014c <ascii_ctrl_bit_clear>
	return c;
200001de:	1dfb      	adds	r3, r7, #7
200001e0:	781b      	ldrb	r3, [r3, #0]
}
200001e2:	0018      	movs	r0, r3
200001e4:	46bd      	mov	sp, r7
200001e6:	b002      	add	sp, #8
200001e8:	bd80      	pop	{r7, pc}
200001ea:	46c0      	nop			; (mov r8, r8)
200001ec:	40021000 	andmi	r1, r2, r0

200001f0 <ascii_write_cmd>:
//other
void ascii_write_cmd( unsigned char c ) 
{
200001f0:	b580      	push	{r7, lr}
200001f2:	b082      	sub	sp, #8
200001f4:	af00      	add	r7, sp, #0
200001f6:	0002      	movs	r2, r0
200001f8:	1dfb      	adds	r3, r7, #7
200001fa:	701a      	strb	r2, [r3, #0]
	ascii_ctrl_bit_clear(B_RS);
200001fc:	2001      	movs	r0, #1
200001fe:	f7ff ffa5 	bl	2000014c <ascii_ctrl_bit_clear>
	ascii_ctrl_bit_clear(B_RW);
20000202:	2002      	movs	r0, #2
20000204:	f7ff ffa2 	bl	2000014c <ascii_ctrl_bit_clear>
	ascii_write_controller(c);
20000208:	1dfb      	adds	r3, r7, #7
2000020a:	781b      	ldrb	r3, [r3, #0]
2000020c:	0018      	movs	r0, r3
2000020e:	f7ff ffc1 	bl	20000194 <ascii_write_controller>
}
20000212:	46c0      	nop			; (mov r8, r8)
20000214:	46bd      	mov	sp, r7
20000216:	b002      	add	sp, #8
20000218:	bd80      	pop	{r7, pc}

2000021a <ascii_write_data>:

void ascii_write_data( unsigned char c ) 
{
2000021a:	b580      	push	{r7, lr}
2000021c:	b082      	sub	sp, #8
2000021e:	af00      	add	r7, sp, #0
20000220:	0002      	movs	r2, r0
20000222:	1dfb      	adds	r3, r7, #7
20000224:	701a      	strb	r2, [r3, #0]
	ascii_ctrl_bit_set(B_RS);
20000226:	2001      	movs	r0, #1
20000228:	f7ff ff74 	bl	20000114 <ascii_ctrl_bit_set>
	ascii_ctrl_bit_clear(B_RW);
2000022c:	2002      	movs	r0, #2
2000022e:	f7ff ff8d 	bl	2000014c <ascii_ctrl_bit_clear>
	ascii_write_controller(c);
20000232:	1dfb      	adds	r3, r7, #7
20000234:	781b      	ldrb	r3, [r3, #0]
20000236:	0018      	movs	r0, r3
20000238:	f7ff ffac 	bl	20000194 <ascii_write_controller>
}
2000023c:	46c0      	nop			; (mov r8, r8)
2000023e:	46bd      	mov	sp, r7
20000240:	b002      	add	sp, #8
20000242:	bd80      	pop	{r7, pc}

20000244 <ascii_read_status>:

unsigned char ascii_read_status ( void )
{
20000244:	b590      	push	{r4, r7, lr}
20000246:	b083      	sub	sp, #12
20000248:	af00      	add	r7, sp, #0
	char c;
	GPIO_E.moder = 0x00005555;
2000024a:	4b0b      	ldr	r3, [pc, #44]	; (20000278 <ascii_read_status+0x34>)
2000024c:	4a0b      	ldr	r2, [pc, #44]	; (2000027c <ascii_read_status+0x38>)
2000024e:	601a      	str	r2, [r3, #0]
	ascii_ctrl_bit_set(B_RW);
20000250:	2002      	movs	r0, #2
20000252:	f7ff ff5f 	bl	20000114 <ascii_ctrl_bit_set>
	ascii_ctrl_bit_clear(B_RS);
20000256:	2001      	movs	r0, #1
20000258:	f7ff ff78 	bl	2000014c <ascii_ctrl_bit_clear>
	c = ascii_read_controller();
2000025c:	1dfc      	adds	r4, r7, #7
2000025e:	f7ff ffb1 	bl	200001c4 <ascii_read_controller>
20000262:	0003      	movs	r3, r0
20000264:	7023      	strb	r3, [r4, #0]
	
	GPIO_E.moder = 0x55555555;
20000266:	4b04      	ldr	r3, [pc, #16]	; (20000278 <ascii_read_status+0x34>)
20000268:	4a05      	ldr	r2, [pc, #20]	; (20000280 <ascii_read_status+0x3c>)
2000026a:	601a      	str	r2, [r3, #0]
	return c;
2000026c:	1dfb      	adds	r3, r7, #7
2000026e:	781b      	ldrb	r3, [r3, #0]
}
20000270:	0018      	movs	r0, r3
20000272:	46bd      	mov	sp, r7
20000274:	b003      	add	sp, #12
20000276:	bd90      	pop	{r4, r7, pc}
20000278:	40021000 	andmi	r1, r2, r0
2000027c:	00005555 	andeq	r5, r0, r5, asr r5
20000280:	55555555 	ldrbpl	r5, [r5, #-1365]	; 0xfffffaab

20000284 <ascii_read_data>:

unsigned char ascii_read_data ( void )
{
20000284:	b590      	push	{r4, r7, lr}
20000286:	b083      	sub	sp, #12
20000288:	af00      	add	r7, sp, #0
	GPIO_E.moder &= 0x0000FFFF;
2000028a:	4b0e      	ldr	r3, [pc, #56]	; (200002c4 <ascii_read_data+0x40>)
2000028c:	681a      	ldr	r2, [r3, #0]
2000028e:	4b0d      	ldr	r3, [pc, #52]	; (200002c4 <ascii_read_data+0x40>)
20000290:	0412      	lsls	r2, r2, #16
20000292:	0c12      	lsrs	r2, r2, #16
20000294:	601a      	str	r2, [r3, #0]
	ascii_ctrl_bit_set(B_RS);
20000296:	2001      	movs	r0, #1
20000298:	f7ff ff3c 	bl	20000114 <ascii_ctrl_bit_set>
	ascii_ctrl_bit_set(B_RW);
2000029c:	2002      	movs	r0, #2
2000029e:	f7ff ff39 	bl	20000114 <ascii_ctrl_bit_set>
	char c = ascii_read_controller();
200002a2:	1dfc      	adds	r4, r7, #7
200002a4:	f7ff ff8e 	bl	200001c4 <ascii_read_controller>
200002a8:	0003      	movs	r3, r0
200002aa:	7023      	strb	r3, [r4, #0]
	GPIO_E.moder |= 0x55550000;
200002ac:	4b05      	ldr	r3, [pc, #20]	; (200002c4 <ascii_read_data+0x40>)
200002ae:	681a      	ldr	r2, [r3, #0]
200002b0:	4b04      	ldr	r3, [pc, #16]	; (200002c4 <ascii_read_data+0x40>)
200002b2:	4905      	ldr	r1, [pc, #20]	; (200002c8 <ascii_read_data+0x44>)
200002b4:	430a      	orrs	r2, r1
200002b6:	601a      	str	r2, [r3, #0]
	return c;
200002b8:	1dfb      	adds	r3, r7, #7
200002ba:	781b      	ldrb	r3, [r3, #0]
}
200002bc:	0018      	movs	r0, r3
200002be:	46bd      	mov	sp, r7
200002c0:	b003      	add	sp, #12
200002c2:	bd90      	pop	{r4, r7, pc}
200002c4:	40021000 	andmi	r1, r2, r0
200002c8:	55550000 	ldrbpl	r0, [r5, #-0]

200002cc <ascii_command>:

void ascii_command( unsigned char command )
{
200002cc:	b580      	push	{r7, lr}
200002ce:	b082      	sub	sp, #8
200002d0:	af00      	add	r7, sp, #0
200002d2:	0002      	movs	r2, r0
200002d4:	1dfb      	adds	r3, r7, #7
200002d6:	701a      	strb	r2, [r3, #0]
	while( (ascii_read_status() & 0x80) == 0x80 ){}
200002d8:	46c0      	nop			; (mov r8, r8)
200002da:	f7ff ffb3 	bl	20000244 <ascii_read_status>
200002de:	0003      	movs	r3, r0
200002e0:	001a      	movs	r2, r3
200002e2:	2380      	movs	r3, #128	; 0x80
200002e4:	4013      	ands	r3, r2
200002e6:	2b80      	cmp	r3, #128	; 0x80
200002e8:	d0f7      	beq.n	200002da <ascii_command+0xe>
	delay_micro(8);
200002ea:	2008      	movs	r0, #8
200002ec:	f7ff feb2 	bl	20000054 <delay_micro>
	ascii_write_cmd(command);
200002f0:	1dfb      	adds	r3, r7, #7
200002f2:	781b      	ldrb	r3, [r3, #0]
200002f4:	0018      	movs	r0, r3
200002f6:	f7ff ff7b 	bl	200001f0 <ascii_write_cmd>
}
200002fa:	46c0      	nop			; (mov r8, r8)
200002fc:	46bd      	mov	sp, r7
200002fe:	b002      	add	sp, #8
20000300:	bd80      	pop	{r7, pc}

20000302 <ascii_init>:

void ascii_init (void) {
20000302:	b580      	push	{r7, lr}
20000304:	af00      	add	r7, sp, #0
	// function set (2 rows and font size)
	ascii_command(0x38);
20000306:	2038      	movs	r0, #56	; 0x38
20000308:	f7ff ffe0 	bl	200002cc <ascii_command>
	delay_micro(39);
2000030c:	2027      	movs	r0, #39	; 0x27
2000030e:	f7ff fea1 	bl	20000054 <delay_micro>
	// turn on display & cursor constant
	ascii_command(0xE);
20000312:	200e      	movs	r0, #14
20000314:	f7ff ffda 	bl	200002cc <ascii_command>
	delay_micro(39);
20000318:	2027      	movs	r0, #39	; 0x27
2000031a:	f7ff fe9b 	bl	20000054 <delay_micro>
	// clear screen
	ascii_command(1);
2000031e:	2001      	movs	r0, #1
20000320:	f7ff ffd4 	bl	200002cc <ascii_command>
	delay_milli(2);
20000324:	2002      	movs	r0, #2
20000326:	f7ff febb 	bl	200000a0 <delay_milli>
	//adressing with inc.
	ascii_command(6);
2000032a:	2006      	movs	r0, #6
2000032c:	f7ff ffce 	bl	200002cc <ascii_command>
	delay_micro(39);
20000330:	2027      	movs	r0, #39	; 0x27
20000332:	f7ff fe8f 	bl	20000054 <delay_micro>
}
20000336:	46c0      	nop			; (mov r8, r8)
20000338:	46bd      	mov	sp, r7
2000033a:	bd80      	pop	{r7, pc}

2000033c <ascii_write_char>:

void ascii_write_char(char c)
{
2000033c:	b580      	push	{r7, lr}
2000033e:	b082      	sub	sp, #8
20000340:	af00      	add	r7, sp, #0
20000342:	0002      	movs	r2, r0
20000344:	1dfb      	adds	r3, r7, #7
20000346:	701a      	strb	r2, [r3, #0]
	while( (ascii_read_status() & 0x80) == 0x80 ){}
20000348:	46c0      	nop			; (mov r8, r8)
2000034a:	f7ff ff7b 	bl	20000244 <ascii_read_status>
2000034e:	0003      	movs	r3, r0
20000350:	001a      	movs	r2, r3
20000352:	2380      	movs	r3, #128	; 0x80
20000354:	4013      	ands	r3, r2
20000356:	2b80      	cmp	r3, #128	; 0x80
20000358:	d0f7      	beq.n	2000034a <ascii_write_char+0xe>
	delay_micro(8);
2000035a:	2008      	movs	r0, #8
2000035c:	f7ff fe7a 	bl	20000054 <delay_micro>
	ascii_write_data(c);
20000360:	1dfb      	adds	r3, r7, #7
20000362:	781b      	ldrb	r3, [r3, #0]
20000364:	0018      	movs	r0, r3
20000366:	f7ff ff58 	bl	2000021a <ascii_write_data>
	delay_micro(43);
2000036a:	202b      	movs	r0, #43	; 0x2b
2000036c:	f7ff fe72 	bl	20000054 <delay_micro>
}
20000370:	46c0      	nop			; (mov r8, r8)
20000372:	46bd      	mov	sp, r7
20000374:	b002      	add	sp, #8
20000376:	bd80      	pop	{r7, pc}

20000378 <ascii_gotxy>:

void ascii_gotxy(unsigned char row, unsigned char column)
{
20000378:	b580      	push	{r7, lr}
2000037a:	b084      	sub	sp, #16
2000037c:	af00      	add	r7, sp, #0
2000037e:	0002      	movs	r2, r0
20000380:	1dfb      	adds	r3, r7, #7
20000382:	701a      	strb	r2, [r3, #0]
20000384:	1dbb      	adds	r3, r7, #6
20000386:	1c0a      	adds	r2, r1, #0
20000388:	701a      	strb	r2, [r3, #0]
	char adr = row-1;
2000038a:	210f      	movs	r1, #15
2000038c:	187b      	adds	r3, r7, r1
2000038e:	1dfa      	adds	r2, r7, #7
20000390:	7812      	ldrb	r2, [r2, #0]
20000392:	3a01      	subs	r2, #1
20000394:	701a      	strb	r2, [r3, #0]
	if(column == 2) adr = adr + 0x40;
20000396:	1dbb      	adds	r3, r7, #6
20000398:	781b      	ldrb	r3, [r3, #0]
2000039a:	2b02      	cmp	r3, #2
2000039c:	d104      	bne.n	200003a8 <ascii_gotxy+0x30>
2000039e:	187b      	adds	r3, r7, r1
200003a0:	187a      	adds	r2, r7, r1
200003a2:	7812      	ldrb	r2, [r2, #0]
200003a4:	3240      	adds	r2, #64	; 0x40
200003a6:	701a      	strb	r2, [r3, #0]
	ascii_write_cmd ( 0x80 | adr );
200003a8:	230f      	movs	r3, #15
200003aa:	18fb      	adds	r3, r7, r3
200003ac:	781b      	ldrb	r3, [r3, #0]
200003ae:	2280      	movs	r2, #128	; 0x80
200003b0:	4252      	negs	r2, r2
200003b2:	4313      	orrs	r3, r2
200003b4:	b2db      	uxtb	r3, r3
200003b6:	0018      	movs	r0, r3
200003b8:	f7ff ff1a 	bl	200001f0 <ascii_write_cmd>
}
200003bc:	46c0      	nop			; (mov r8, r8)
200003be:	46bd      	mov	sp, r7
200003c0:	b004      	add	sp, #16
200003c2:	bd80      	pop	{r7, pc}

200003c4 <write_ascii>:
/*
 * main function
 */
int write_ascii(char line1[], char line2[])
{
200003c4:	b580      	push	{r7, lr}
200003c6:	b084      	sub	sp, #16
200003c8:	af00      	add	r7, sp, #0
200003ca:	6078      	str	r0, [r7, #4]
200003cc:	6039      	str	r1, [r7, #0]
	char *s;
	ascii_init();
200003ce:	f7ff ff98 	bl	20000302 <ascii_init>
	ascii_gotxy(1,1);
200003d2:	2101      	movs	r1, #1
200003d4:	2001      	movs	r0, #1
200003d6:	f7ff ffcf 	bl	20000378 <ascii_gotxy>
	s = line1;
200003da:	687b      	ldr	r3, [r7, #4]
200003dc:	60fb      	str	r3, [r7, #12]
	while( *s ) {
200003de:	e006      	b.n	200003ee <write_ascii+0x2a>
		ascii_write_char(*s++);
200003e0:	68fb      	ldr	r3, [r7, #12]
200003e2:	1c5a      	adds	r2, r3, #1
200003e4:	60fa      	str	r2, [r7, #12]
200003e6:	781b      	ldrb	r3, [r3, #0]
200003e8:	0018      	movs	r0, r3
200003ea:	f7ff ffa7 	bl	2000033c <ascii_write_char>
	while( *s ) {
200003ee:	68fb      	ldr	r3, [r7, #12]
200003f0:	781b      	ldrb	r3, [r3, #0]
200003f2:	2b00      	cmp	r3, #0
200003f4:	d1f4      	bne.n	200003e0 <write_ascii+0x1c>
	}
	ascii_gotxy(1,2);
200003f6:	2102      	movs	r1, #2
200003f8:	2001      	movs	r0, #1
200003fa:	f7ff ffbd 	bl	20000378 <ascii_gotxy>
	s = line2;
200003fe:	683b      	ldr	r3, [r7, #0]
20000400:	60fb      	str	r3, [r7, #12]
	while( *s ) {
20000402:	e006      	b.n	20000412 <write_ascii+0x4e>
		ascii_write_char(*s++);
20000404:	68fb      	ldr	r3, [r7, #12]
20000406:	1c5a      	adds	r2, r3, #1
20000408:	60fa      	str	r2, [r7, #12]
2000040a:	781b      	ldrb	r3, [r3, #0]
2000040c:	0018      	movs	r0, r3
2000040e:	f7ff ff95 	bl	2000033c <ascii_write_char>
	while( *s ) {
20000412:	68fb      	ldr	r3, [r7, #12]
20000414:	781b      	ldrb	r3, [r3, #0]
20000416:	2b00      	cmp	r3, #0
20000418:	d1f4      	bne.n	20000404 <write_ascii+0x40>
	}
	return 0;
2000041a:	2300      	movs	r3, #0
}
2000041c:	0018      	movs	r0, r3
2000041e:	46bd      	mov	sp, r7
20000420:	b004      	add	sp, #16
20000422:	bd80      	pop	{r7, pc}

20000424 <graphic_initalize>:

//GRPAPHICS DRIVERS----------------------------
//OBS! graphic_init. sets up port E for usage
__attribute__((naked))
void graphic_initalize(void)
{
20000424:	4770dff0 			; <UNDEFINED> instruction: 0x4770dff0
	__asm volatile(" .HWORD 0xDFF0\n");
	__asm volatile(" BX LR\n");
}
20000428:	46c0      	nop			; (mov r8, r8)

2000042a <graphic_pixel_set>:

__attribute__((naked))
void graphic_pixel_set(int x, int y)
{
2000042a:	4770dff2 			; <UNDEFINED> instruction: 0x4770dff2
	__asm volatile(" .HWORD 0xDFF2\n");
	__asm volatile(" BX LR\n");
}
2000042e:	46c0      	nop			; (mov r8, r8)

20000430 <graphic_clear_screen>:

__attribute__((naked))
void graphic_clear_screen(void)
{
20000430:	4770dff1 			; <UNDEFINED> instruction: 0x4770dff1
	__asm volatile(" .HWORD 0xDFF1\n");
	__asm volatile(" BX LR\n");
}
20000434:	46c0      	nop			; (mov r8, r8)

20000436 <graphic_pixel_clear>:

__attribute__((naked))
void graphic_pixel_clear(int x, int y)
{
20000436:	4770dff3 			; <UNDEFINED> instruction: 0x4770dff3
	__asm volatile(" .HWORD 0xDFF3\n");
	__asm volatile(" BX LR\n");
}
2000043a:	46c0      	nop			; (mov r8, r8)

2000043c <draw_object>:

//GRAPHICS DRIVERS----------------------------
//OBJECT-----------------------------
//general methods
void draw_object(POBJECT obj)
{
2000043c:	b590      	push	{r4, r7, lr}
2000043e:	b087      	sub	sp, #28
20000440:	af00      	add	r7, sp, #0
20000442:	6078      	str	r0, [r7, #4]
	int numpixels = obj -> geo -> numpoints;
20000444:	687b      	ldr	r3, [r7, #4]
20000446:	681b      	ldr	r3, [r3, #0]
20000448:	681b      	ldr	r3, [r3, #0]
2000044a:	613b      	str	r3, [r7, #16]
	for(int i = 0; i < numpixels; i++)
2000044c:	2300      	movs	r3, #0
2000044e:	617b      	str	r3, [r7, #20]
20000450:	e02c      	b.n	200004ac <draw_object+0x70>
	{
		unsigned char x = obj -> geo -> px[i].x + (obj -> posx) * SQUARE_WIDTH;
20000452:	687b      	ldr	r3, [r7, #4]
20000454:	681a      	ldr	r2, [r3, #0]
20000456:	697b      	ldr	r3, [r7, #20]
20000458:	3304      	adds	r3, #4
2000045a:	005b      	lsls	r3, r3, #1
2000045c:	18d3      	adds	r3, r2, r3
2000045e:	3304      	adds	r3, #4
20000460:	7819      	ldrb	r1, [r3, #0]
20000462:	687b      	ldr	r3, [r7, #4]
20000464:	68db      	ldr	r3, [r3, #12]
20000466:	b2db      	uxtb	r3, r3
20000468:	009b      	lsls	r3, r3, #2
2000046a:	b2da      	uxtb	r2, r3
2000046c:	200f      	movs	r0, #15
2000046e:	183b      	adds	r3, r7, r0
20000470:	188a      	adds	r2, r1, r2
20000472:	701a      	strb	r2, [r3, #0]
		unsigned char y = obj -> geo -> px[i].y + (obj -> posy) * SQUARE_WIDTH;
20000474:	687b      	ldr	r3, [r7, #4]
20000476:	681a      	ldr	r2, [r3, #0]
20000478:	697b      	ldr	r3, [r7, #20]
2000047a:	3304      	adds	r3, #4
2000047c:	005b      	lsls	r3, r3, #1
2000047e:	18d3      	adds	r3, r2, r3
20000480:	3305      	adds	r3, #5
20000482:	7819      	ldrb	r1, [r3, #0]
20000484:	687b      	ldr	r3, [r7, #4]
20000486:	691b      	ldr	r3, [r3, #16]
20000488:	b2db      	uxtb	r3, r3
2000048a:	009b      	lsls	r3, r3, #2
2000048c:	b2da      	uxtb	r2, r3
2000048e:	240e      	movs	r4, #14
20000490:	193b      	adds	r3, r7, r4
20000492:	188a      	adds	r2, r1, r2
20000494:	701a      	strb	r2, [r3, #0]
		graphic_pixel_set(x, y);
20000496:	183b      	adds	r3, r7, r0
20000498:	781a      	ldrb	r2, [r3, #0]
2000049a:	193b      	adds	r3, r7, r4
2000049c:	781b      	ldrb	r3, [r3, #0]
2000049e:	0019      	movs	r1, r3
200004a0:	0010      	movs	r0, r2
200004a2:	f7ff ffc2 	bl	2000042a <graphic_pixel_set>
	for(int i = 0; i < numpixels; i++)
200004a6:	697b      	ldr	r3, [r7, #20]
200004a8:	3301      	adds	r3, #1
200004aa:	617b      	str	r3, [r7, #20]
200004ac:	697a      	ldr	r2, [r7, #20]
200004ae:	693b      	ldr	r3, [r7, #16]
200004b0:	429a      	cmp	r2, r3
200004b2:	dbce      	blt.n	20000452 <draw_object+0x16>
	}
}
200004b4:	46c0      	nop			; (mov r8, r8)
200004b6:	46c0      	nop			; (mov r8, r8)
200004b8:	46bd      	mov	sp, r7
200004ba:	b007      	add	sp, #28
200004bc:	bd90      	pop	{r4, r7, pc}

200004be <clear_object>:

void clear_object(POBJECT obj)
{
200004be:	b590      	push	{r4, r7, lr}
200004c0:	b087      	sub	sp, #28
200004c2:	af00      	add	r7, sp, #0
200004c4:	6078      	str	r0, [r7, #4]
	int numpixels = obj -> geo -> numpoints;
200004c6:	687b      	ldr	r3, [r7, #4]
200004c8:	681b      	ldr	r3, [r3, #0]
200004ca:	681b      	ldr	r3, [r3, #0]
200004cc:	613b      	str	r3, [r7, #16]
	for(int i = 0; i < numpixels; i++)
200004ce:	2300      	movs	r3, #0
200004d0:	617b      	str	r3, [r7, #20]
200004d2:	e02c      	b.n	2000052e <clear_object+0x70>
	{ 
		unsigned char x = obj -> geo -> px[i].x + (obj -> posx) * SQUARE_WIDTH;
200004d4:	687b      	ldr	r3, [r7, #4]
200004d6:	681a      	ldr	r2, [r3, #0]
200004d8:	697b      	ldr	r3, [r7, #20]
200004da:	3304      	adds	r3, #4
200004dc:	005b      	lsls	r3, r3, #1
200004de:	18d3      	adds	r3, r2, r3
200004e0:	3304      	adds	r3, #4
200004e2:	7819      	ldrb	r1, [r3, #0]
200004e4:	687b      	ldr	r3, [r7, #4]
200004e6:	68db      	ldr	r3, [r3, #12]
200004e8:	b2db      	uxtb	r3, r3
200004ea:	009b      	lsls	r3, r3, #2
200004ec:	b2da      	uxtb	r2, r3
200004ee:	200f      	movs	r0, #15
200004f0:	183b      	adds	r3, r7, r0
200004f2:	188a      	adds	r2, r1, r2
200004f4:	701a      	strb	r2, [r3, #0]
		unsigned char y = obj -> geo -> px[i].y + (obj -> posy) * SQUARE_WIDTH;
200004f6:	687b      	ldr	r3, [r7, #4]
200004f8:	681a      	ldr	r2, [r3, #0]
200004fa:	697b      	ldr	r3, [r7, #20]
200004fc:	3304      	adds	r3, #4
200004fe:	005b      	lsls	r3, r3, #1
20000500:	18d3      	adds	r3, r2, r3
20000502:	3305      	adds	r3, #5
20000504:	7819      	ldrb	r1, [r3, #0]
20000506:	687b      	ldr	r3, [r7, #4]
20000508:	691b      	ldr	r3, [r3, #16]
2000050a:	b2db      	uxtb	r3, r3
2000050c:	009b      	lsls	r3, r3, #2
2000050e:	b2da      	uxtb	r2, r3
20000510:	240e      	movs	r4, #14
20000512:	193b      	adds	r3, r7, r4
20000514:	188a      	adds	r2, r1, r2
20000516:	701a      	strb	r2, [r3, #0]
		graphic_pixel_clear(x, y);
20000518:	183b      	adds	r3, r7, r0
2000051a:	781a      	ldrb	r2, [r3, #0]
2000051c:	193b      	adds	r3, r7, r4
2000051e:	781b      	ldrb	r3, [r3, #0]
20000520:	0019      	movs	r1, r3
20000522:	0010      	movs	r0, r2
20000524:	f7ff ff87 	bl	20000436 <graphic_pixel_clear>
	for(int i = 0; i < numpixels; i++)
20000528:	697b      	ldr	r3, [r7, #20]
2000052a:	3301      	adds	r3, #1
2000052c:	617b      	str	r3, [r7, #20]
2000052e:	697a      	ldr	r2, [r7, #20]
20000530:	693b      	ldr	r3, [r7, #16]
20000532:	429a      	cmp	r2, r3
20000534:	dbce      	blt.n	200004d4 <clear_object+0x16>
	}
}
20000536:	46c0      	nop			; (mov r8, r8)
20000538:	46c0      	nop			; (mov r8, r8)
2000053a:	46bd      	mov	sp, r7
2000053c:	b007      	add	sp, #28
2000053e:	bd90      	pop	{r4, r7, pc}

20000540 <set_object_speed>:

void set_object_speed(POBJECT obj, int x, int y)
{
20000540:	b580      	push	{r7, lr}
20000542:	b084      	sub	sp, #16
20000544:	af00      	add	r7, sp, #0
20000546:	60f8      	str	r0, [r7, #12]
20000548:	60b9      	str	r1, [r7, #8]
2000054a:	607a      	str	r2, [r7, #4]
	obj -> dirx = x;
2000054c:	68fb      	ldr	r3, [r7, #12]
2000054e:	68ba      	ldr	r2, [r7, #8]
20000550:	605a      	str	r2, [r3, #4]
	obj -> diry = y;
20000552:	68fb      	ldr	r3, [r7, #12]
20000554:	687a      	ldr	r2, [r7, #4]
20000556:	609a      	str	r2, [r3, #8]
}
20000558:	46c0      	nop			; (mov r8, r8)
2000055a:	46bd      	mov	sp, r7
2000055c:	b004      	add	sp, #16
2000055e:	bd80      	pop	{r7, pc}

20000560 <move_snake>:

//snake methods
void move_snake(POBJECT snakeO)
{
20000560:	b580      	push	{r7, lr}
20000562:	b082      	sub	sp, #8
20000564:	af00      	add	r7, sp, #0
20000566:	6078      	str	r0, [r7, #4]
	//deside new pos. by adding dir coordinates to list of points
	snakeO-> posx += snakeO-> dirx;
20000568:	687b      	ldr	r3, [r7, #4]
2000056a:	68da      	ldr	r2, [r3, #12]
2000056c:	687b      	ldr	r3, [r7, #4]
2000056e:	685b      	ldr	r3, [r3, #4]
20000570:	18d2      	adds	r2, r2, r3
20000572:	687b      	ldr	r3, [r7, #4]
20000574:	60da      	str	r2, [r3, #12]
	snakeO-> posy += snakeO-> diry;
20000576:	687b      	ldr	r3, [r7, #4]
20000578:	691a      	ldr	r2, [r3, #16]
2000057a:	687b      	ldr	r3, [r7, #4]
2000057c:	689b      	ldr	r3, [r3, #8]
2000057e:	18d2      	adds	r2, r2, r3
20000580:	687b      	ldr	r3, [r7, #4]
20000582:	611a      	str	r2, [r3, #16]
}
20000584:	46c0      	nop			; (mov r8, r8)
20000586:	46bd      	mov	sp, r7
20000588:	b002      	add	sp, #8
2000058a:	bd80      	pop	{r7, pc}

2000058c <move_apple>:

//apple methods
void move_apple(POBJECT appleO)
{
2000058c:	b580      	push	{r7, lr}
2000058e:	b082      	sub	sp, #8
20000590:	af00      	add	r7, sp, #0
20000592:	6078      	str	r0, [r7, #4]
	appleO -> posx = random_number(1, SCREEN_WIDTH);
20000594:	2120      	movs	r1, #32
20000596:	2001      	movs	r0, #1
20000598:	f7ff fd95 	bl	200000c6 <random_number>
2000059c:	0002      	movs	r2, r0
2000059e:	687b      	ldr	r3, [r7, #4]
200005a0:	60da      	str	r2, [r3, #12]
	appleO -> posy = random_number(1, SCREEN_HEIGHT);
200005a2:	2110      	movs	r1, #16
200005a4:	2001      	movs	r0, #1
200005a6:	f7ff fd8e 	bl	200000c6 <random_number>
200005aa:	0002      	movs	r2, r0
200005ac:	687b      	ldr	r3, [r7, #4]
200005ae:	611a      	str	r2, [r3, #16]
}
200005b0:	46c0      	nop			; (mov r8, r8)
200005b2:	46bd      	mov	sp, r7
200005b4:	b002      	add	sp, #8
200005b6:	bd80      	pop	{r7, pc}

200005b8 <create_tail>:

	}
};


OBJECT create_tail (int x, int y) {
200005b8:	b590      	push	{r4, r7, lr}
200005ba:	b08f      	sub	sp, #60	; 0x3c
200005bc:	af00      	add	r7, sp, #0
200005be:	60f8      	str	r0, [r7, #12]
200005c0:	60b9      	str	r1, [r7, #8]
200005c2:	607a      	str	r2, [r7, #4]
	OBJECT obj = {
200005c4:	2114      	movs	r1, #20
200005c6:	187b      	adds	r3, r7, r1
200005c8:	4a12      	ldr	r2, [pc, #72]	; (20000614 <create_tail+0x5c>)
200005ca:	601a      	str	r2, [r3, #0]
200005cc:	187b      	adds	r3, r7, r1
200005ce:	2200      	movs	r2, #0
200005d0:	605a      	str	r2, [r3, #4]
200005d2:	187b      	adds	r3, r7, r1
200005d4:	2200      	movs	r2, #0
200005d6:	609a      	str	r2, [r3, #8]
200005d8:	187b      	adds	r3, r7, r1
200005da:	68ba      	ldr	r2, [r7, #8]
200005dc:	60da      	str	r2, [r3, #12]
200005de:	187b      	adds	r3, r7, r1
200005e0:	687a      	ldr	r2, [r7, #4]
200005e2:	611a      	str	r2, [r3, #16]
200005e4:	187b      	adds	r3, r7, r1
200005e6:	4a0c      	ldr	r2, [pc, #48]	; (20000618 <create_tail+0x60>)
200005e8:	615a      	str	r2, [r3, #20]
200005ea:	187b      	adds	r3, r7, r1
200005ec:	4a0b      	ldr	r2, [pc, #44]	; (2000061c <create_tail+0x64>)
200005ee:	619a      	str	r2, [r3, #24]
200005f0:	187b      	adds	r3, r7, r1
200005f2:	4a0b      	ldr	r2, [pc, #44]	; (20000620 <create_tail+0x68>)
200005f4:	61da      	str	r2, [r3, #28]
200005f6:	187b      	adds	r3, r7, r1
200005f8:	4a0a      	ldr	r2, [pc, #40]	; (20000624 <create_tail+0x6c>)
200005fa:	621a      	str	r2, [r3, #32]
		draw_object,
		clear_object,
		move_snake,
		set_object_speed
	};
	return obj;
200005fc:	68fb      	ldr	r3, [r7, #12]
200005fe:	187a      	adds	r2, r7, r1
20000600:	ca13      	ldmia	r2!, {r0, r1, r4}
20000602:	c313      	stmia	r3!, {r0, r1, r4}
20000604:	ca13      	ldmia	r2!, {r0, r1, r4}
20000606:	c313      	stmia	r3!, {r0, r1, r4}
20000608:	ca13      	ldmia	r2!, {r0, r1, r4}
2000060a:	c313      	stmia	r3!, {r0, r1, r4}
}
2000060c:	68f8      	ldr	r0, [r7, #12]
2000060e:	46bd      	mov	sp, r7
20000610:	b00f      	add	sp, #60	; 0x3c
20000612:	bd90      	pop	{r4, r7, pc}
20000614:	20007000 	andcs	r7, r0, r0
20000618:	2000043d 	andcs	r0, r0, sp, lsr r4
2000061c:	200004bf 			; <UNDEFINED> instruction: 0x200004bf
20000620:	20000561 	andcs	r0, r0, r1, ror #10
20000624:	20000541 	andcs	r0, r0, r1, asr #10

20000628 <draw_objarr>:

void draw_objarr(OBJECT obj[], int amount) {
20000628:	b580      	push	{r7, lr}
2000062a:	b084      	sub	sp, #16
2000062c:	af00      	add	r7, sp, #0
2000062e:	6078      	str	r0, [r7, #4]
20000630:	6039      	str	r1, [r7, #0]
	// draws amount members of pobject array
	for (int i = 0; i < amount; i++) {
20000632:	2300      	movs	r3, #0
20000634:	60fb      	str	r3, [r7, #12]
20000636:	e00d      	b.n	20000654 <draw_objarr+0x2c>
		draw_object(&obj[i]);
20000638:	68fa      	ldr	r2, [r7, #12]
2000063a:	0013      	movs	r3, r2
2000063c:	00db      	lsls	r3, r3, #3
2000063e:	189b      	adds	r3, r3, r2
20000640:	009b      	lsls	r3, r3, #2
20000642:	001a      	movs	r2, r3
20000644:	687b      	ldr	r3, [r7, #4]
20000646:	189b      	adds	r3, r3, r2
20000648:	0018      	movs	r0, r3
2000064a:	f7ff fef7 	bl	2000043c <draw_object>
	for (int i = 0; i < amount; i++) {
2000064e:	68fb      	ldr	r3, [r7, #12]
20000650:	3301      	adds	r3, #1
20000652:	60fb      	str	r3, [r7, #12]
20000654:	68fa      	ldr	r2, [r7, #12]
20000656:	683b      	ldr	r3, [r7, #0]
20000658:	429a      	cmp	r2, r3
2000065a:	dbed      	blt.n	20000638 <draw_objarr+0x10>
	}
}
2000065c:	46c0      	nop			; (mov r8, r8)
2000065e:	46c0      	nop			; (mov r8, r8)
20000660:	46bd      	mov	sp, r7
20000662:	b004      	add	sp, #16
20000664:	bd80      	pop	{r7, pc}

20000666 <move_o1_o2>:

void move_o1_o2(OBJECT o1, OBJECT o2) {
20000666:	b084      	sub	sp, #16
20000668:	b5b0      	push	{r4, r5, r7, lr}
2000066a:	46c6      	mov	lr, r8
2000066c:	b500      	push	{lr}
2000066e:	af00      	add	r7, sp, #0
20000670:	250c      	movs	r5, #12
20000672:	2408      	movs	r4, #8
20000674:	193c      	adds	r4, r7, r4
20000676:	1964      	adds	r4, r4, r5
20000678:	6020      	str	r0, [r4, #0]
2000067a:	6061      	str	r1, [r4, #4]
2000067c:	60a2      	str	r2, [r4, #8]
2000067e:	60e3      	str	r3, [r4, #12]
	// moves o1 to o2
	if (o1.posx!=o2.posx && o1.posy!=o2.posy) {
20000680:	0029      	movs	r1, r5
20000682:	2308      	movs	r3, #8
20000684:	18fb      	adds	r3, r7, r3
20000686:	185b      	adds	r3, r3, r1
20000688:	68da      	ldr	r2, [r3, #12]
2000068a:	2324      	movs	r3, #36	; 0x24
2000068c:	200c      	movs	r0, #12
2000068e:	4684      	mov	ip, r0
20000690:	2008      	movs	r0, #8
20000692:	1838      	adds	r0, r7, r0
20000694:	4680      	mov	r8, r0
20000696:	44c4      	add	ip, r8
20000698:	4463      	add	r3, ip
2000069a:	68db      	ldr	r3, [r3, #12]
2000069c:	429a      	cmp	r2, r3
2000069e:	d028      	beq.n	200006f2 <move_o1_o2+0x8c>
200006a0:	2308      	movs	r3, #8
200006a2:	18fb      	adds	r3, r7, r3
200006a4:	185b      	adds	r3, r3, r1
200006a6:	691a      	ldr	r2, [r3, #16]
200006a8:	2324      	movs	r3, #36	; 0x24
200006aa:	200c      	movs	r0, #12
200006ac:	4684      	mov	ip, r0
200006ae:	2008      	movs	r0, #8
200006b0:	1838      	adds	r0, r7, r0
200006b2:	4680      	mov	r8, r0
200006b4:	44c4      	add	ip, r8
200006b6:	4463      	add	r3, ip
200006b8:	691b      	ldr	r3, [r3, #16]
200006ba:	429a      	cmp	r2, r3
200006bc:	d019      	beq.n	200006f2 <move_o1_o2+0x8c>
		o1.posx=o2.posx;
200006be:	2324      	movs	r3, #36	; 0x24
200006c0:	220c      	movs	r2, #12
200006c2:	4694      	mov	ip, r2
200006c4:	2208      	movs	r2, #8
200006c6:	18ba      	adds	r2, r7, r2
200006c8:	4690      	mov	r8, r2
200006ca:	44c4      	add	ip, r8
200006cc:	4463      	add	r3, ip
200006ce:	68da      	ldr	r2, [r3, #12]
200006d0:	2308      	movs	r3, #8
200006d2:	18fb      	adds	r3, r7, r3
200006d4:	185b      	adds	r3, r3, r1
200006d6:	60da      	str	r2, [r3, #12]
		o1.posy=o2.posy;
200006d8:	2324      	movs	r3, #36	; 0x24
200006da:	220c      	movs	r2, #12
200006dc:	4694      	mov	ip, r2
200006de:	2208      	movs	r2, #8
200006e0:	18ba      	adds	r2, r7, r2
200006e2:	4690      	mov	r8, r2
200006e4:	44c4      	add	ip, r8
200006e6:	4463      	add	r3, ip
200006e8:	691a      	ldr	r2, [r3, #16]
200006ea:	2308      	movs	r3, #8
200006ec:	18fb      	adds	r3, r7, r3
200006ee:	185b      	adds	r3, r3, r1
200006f0:	611a      	str	r2, [r3, #16]
	}
}
200006f2:	46c0      	nop			; (mov r8, r8)
200006f4:	46bd      	mov	sp, r7
200006f6:	bc04      	pop	{r2}
200006f8:	4690      	mov	r8, r2
200006fa:	bcb0      	pop	{r4, r5, r7}
200006fc:	bc08      	pop	{r3}
200006fe:	b004      	add	sp, #16
20000700:	4718      	bx	r3

20000702 <object_collides>:
//DEFINED OBJ.------------------------

//collision detection-------------------------------

char object_collides(POBJECT o1, POBJECT o2)
{	
20000702:	b580      	push	{r7, lr}
20000704:	b082      	sub	sp, #8
20000706:	af00      	add	r7, sp, #0
20000708:	6078      	str	r0, [r7, #4]
2000070a:	6039      	str	r1, [r7, #0]
	// objects collides
	return (o1 -> posx == o2 -> posx && o1->posy == o2->posy);
2000070c:	687b      	ldr	r3, [r7, #4]
2000070e:	68da      	ldr	r2, [r3, #12]
20000710:	683b      	ldr	r3, [r7, #0]
20000712:	68db      	ldr	r3, [r3, #12]
20000714:	429a      	cmp	r2, r3
20000716:	d107      	bne.n	20000728 <object_collides+0x26>
20000718:	687b      	ldr	r3, [r7, #4]
2000071a:	691a      	ldr	r2, [r3, #16]
2000071c:	683b      	ldr	r3, [r7, #0]
2000071e:	691b      	ldr	r3, [r3, #16]
20000720:	429a      	cmp	r2, r3
20000722:	d101      	bne.n	20000728 <object_collides+0x26>
20000724:	2301      	movs	r3, #1
20000726:	e000      	b.n	2000072a <object_collides+0x28>
20000728:	2300      	movs	r3, #0
2000072a:	b2db      	uxtb	r3, r3
}
2000072c:	0018      	movs	r0, r3
2000072e:	46bd      	mov	sp, r7
20000730:	b002      	add	sp, #8
20000732:	bd80      	pop	{r7, pc}

20000734 <game_over>:
//FUNC.-------------------------------
char game_over(POBJECT snake_head, OBJECT snake_tail[], int points)
{
20000734:	b580      	push	{r7, lr}
20000736:	b086      	sub	sp, #24
20000738:	af00      	add	r7, sp, #0
2000073a:	60f8      	str	r0, [r7, #12]
2000073c:	60b9      	str	r1, [r7, #8]
2000073e:	607a      	str	r2, [r7, #4]
	// out of bounds detection
	if (snake_head->posx < 0 ||
20000740:	68fb      	ldr	r3, [r7, #12]
20000742:	68db      	ldr	r3, [r3, #12]
20000744:	2b00      	cmp	r3, #0
20000746:	db0b      	blt.n	20000760 <game_over+0x2c>
		snake_head->posx > SCREEN_WIDTH ||
20000748:	68fb      	ldr	r3, [r7, #12]
2000074a:	68db      	ldr	r3, [r3, #12]
	if (snake_head->posx < 0 ||
2000074c:	2b20      	cmp	r3, #32
2000074e:	dc07      	bgt.n	20000760 <game_over+0x2c>
		snake_head->posy < 0 ||
20000750:	68fb      	ldr	r3, [r7, #12]
20000752:	691b      	ldr	r3, [r3, #16]
		snake_head->posx > SCREEN_WIDTH ||
20000754:	2b00      	cmp	r3, #0
20000756:	db03      	blt.n	20000760 <game_over+0x2c>
		snake_head->posy > SCREEN_HEIGHT) {
20000758:	68fb      	ldr	r3, [r7, #12]
2000075a:	691b      	ldr	r3, [r3, #16]
		snake_head->posy < 0 ||
2000075c:	2b10      	cmp	r3, #16
2000075e:	dd01      	ble.n	20000764 <game_over+0x30>
		return 1;
20000760:	2301      	movs	r3, #1
20000762:	e026      	b.n	200007b2 <game_over+0x7e>
	}
	// tail detection
	for (int i=0; i<points; i++) {
20000764:	2300      	movs	r3, #0
20000766:	617b      	str	r3, [r7, #20]
20000768:	e01e      	b.n	200007a8 <game_over+0x74>
		if (snake_tail[i].posx == snake_head->posx &&
2000076a:	697a      	ldr	r2, [r7, #20]
2000076c:	0013      	movs	r3, r2
2000076e:	00db      	lsls	r3, r3, #3
20000770:	189b      	adds	r3, r3, r2
20000772:	009b      	lsls	r3, r3, #2
20000774:	001a      	movs	r2, r3
20000776:	68bb      	ldr	r3, [r7, #8]
20000778:	189b      	adds	r3, r3, r2
2000077a:	68da      	ldr	r2, [r3, #12]
2000077c:	68fb      	ldr	r3, [r7, #12]
2000077e:	68db      	ldr	r3, [r3, #12]
20000780:	429a      	cmp	r2, r3
20000782:	d10e      	bne.n	200007a2 <game_over+0x6e>
			snake_tail[i].posy == snake_head->posy) {
20000784:	697a      	ldr	r2, [r7, #20]
20000786:	0013      	movs	r3, r2
20000788:	00db      	lsls	r3, r3, #3
2000078a:	189b      	adds	r3, r3, r2
2000078c:	009b      	lsls	r3, r3, #2
2000078e:	001a      	movs	r2, r3
20000790:	68bb      	ldr	r3, [r7, #8]
20000792:	189b      	adds	r3, r3, r2
20000794:	691a      	ldr	r2, [r3, #16]
20000796:	68fb      	ldr	r3, [r7, #12]
20000798:	691b      	ldr	r3, [r3, #16]
		if (snake_tail[i].posx == snake_head->posx &&
2000079a:	429a      	cmp	r2, r3
2000079c:	d101      	bne.n	200007a2 <game_over+0x6e>
			return 1;
2000079e:	2301      	movs	r3, #1
200007a0:	e007      	b.n	200007b2 <game_over+0x7e>
	for (int i=0; i<points; i++) {
200007a2:	697b      	ldr	r3, [r7, #20]
200007a4:	3301      	adds	r3, #1
200007a6:	617b      	str	r3, [r7, #20]
200007a8:	697a      	ldr	r2, [r7, #20]
200007aa:	687b      	ldr	r3, [r7, #4]
200007ac:	429a      	cmp	r2, r3
200007ae:	dbdc      	blt.n	2000076a <game_over+0x36>
		}
	}
	return 0;
200007b0:	2300      	movs	r3, #0
}
200007b2:	0018      	movs	r0, r3
200007b4:	46bd      	mov	sp, r7
200007b6:	b006      	add	sp, #24
200007b8:	bd80      	pop	{r7, pc}

200007ba <main>:



//MAIN------------------------------
void main(void)
{
200007ba:	b5f0      	push	{r4, r5, r6, r7, lr}
200007bc:	4cbc      	ldr	r4, [pc, #752]	; (20000ab0 <main+0x2f6>)
200007be:	44a5      	add	sp, r4
200007c0:	af0e      	add	r7, sp, #56	; 0x38
	//object declarations
	POBJECT appleO = &apple;
200007c2:	4bbc      	ldr	r3, [pc, #752]	; (20000ab4 <main+0x2fa>)
200007c4:	4cbc      	ldr	r4, [pc, #752]	; (20000ab8 <main+0x2fe>)
200007c6:	193a      	adds	r2, r7, r4
200007c8:	6013      	str	r3, [r2, #0]
	POBJECT snake_head = &snake;
200007ca:	4bbc      	ldr	r3, [pc, #752]	; (20000abc <main+0x302>)
200007cc:	4abc      	ldr	r2, [pc, #752]	; (20000ac0 <main+0x306>)
200007ce:	18ba      	adds	r2, r7, r2
200007d0:	6013      	str	r3, [r2, #0]
	OBJECT snake_tail[16*32];	
	//init
	init_app();
200007d2:	f000 fa63 	bl	20000c9c <init_app>
	graphic_initalize();
200007d6:	f7ff fe25 	bl	20000424 <graphic_initalize>
	graphic_clear_screen();
200007da:	f7ff fe29 	bl	20000430 <graphic_clear_screen>
	appleO -> draw(appleO);
200007de:	0022      	movs	r2, r4
200007e0:	18bb      	adds	r3, r7, r2
200007e2:	681b      	ldr	r3, [r3, #0]
200007e4:	695b      	ldr	r3, [r3, #20]
200007e6:	18ba      	adds	r2, r7, r2
200007e8:	6812      	ldr	r2, [r2, #0]
200007ea:	0010      	movs	r0, r2
200007ec:	4798      	blx	r3
	// game loop
	while (!game_over(snake_head, snake_tail, points)) 
200007ee:	e140      	b.n	20000a72 <main+0x2b8>
	{
		graphic_clear_screen();
200007f0:	f7ff fe1e 	bl	20000430 <graphic_clear_screen>
		// render changes
		appleO -> draw(appleO);
200007f4:	4cb0      	ldr	r4, [pc, #704]	; (20000ab8 <main+0x2fe>)
200007f6:	193b      	adds	r3, r7, r4
200007f8:	681b      	ldr	r3, [r3, #0]
200007fa:	695b      	ldr	r3, [r3, #20]
200007fc:	193a      	adds	r2, r7, r4
200007fe:	6812      	ldr	r2, [r2, #0]
20000800:	0010      	movs	r0, r2
20000802:	4798      	blx	r3
		draw_object(snake_head);
20000804:	4dae      	ldr	r5, [pc, #696]	; (20000ac0 <main+0x306>)
20000806:	197b      	adds	r3, r7, r5
20000808:	681b      	ldr	r3, [r3, #0]
2000080a:	0018      	movs	r0, r3
2000080c:	f7ff fe16 	bl	2000043c <draw_object>
		draw_objarr(snake_tail, points);
20000810:	4bac      	ldr	r3, [pc, #688]	; (20000ac4 <main+0x30a>)
20000812:	681b      	ldr	r3, [r3, #0]
20000814:	001a      	movs	r2, r3
20000816:	2328      	movs	r3, #40	; 0x28
20000818:	18fb      	adds	r3, r7, r3
2000081a:	0011      	movs	r1, r2
2000081c:	0018      	movs	r0, r3
2000081e:	f7ff ff03 	bl	20000628 <draw_objarr>
		// if snake eats apple
		if(object_collides(snake_head, appleO))
20000822:	193b      	adds	r3, r7, r4
20000824:	681a      	ldr	r2, [r3, #0]
20000826:	197b      	adds	r3, r7, r5
20000828:	681b      	ldr	r3, [r3, #0]
2000082a:	0011      	movs	r1, r2
2000082c:	0018      	movs	r0, r3
2000082e:	f7ff ff68 	bl	20000702 <object_collides>
20000832:	1e03      	subs	r3, r0, #0
20000834:	d040      	beq.n	200008b8 <main+0xfe>
		{
			//write score
			write_ascii("Score: ", "");
20000836:	4aa4      	ldr	r2, [pc, #656]	; (20000ac8 <main+0x30e>)
20000838:	4ba4      	ldr	r3, [pc, #656]	; (20000acc <main+0x312>)
2000083a:	0011      	movs	r1, r2
2000083c:	0018      	movs	r0, r3
2000083e:	f7ff fdc1 	bl	200003c4 <write_ascii>
			// move apple to random location
			move_apple(appleO);
20000842:	193b      	adds	r3, r7, r4
20000844:	681b      	ldr	r3, [r3, #0]
20000846:	0018      	movs	r0, r3
20000848:	f7ff fea0 	bl	2000058c <move_apple>
			// add tail
			for (int i = 0; i < TAIL_INCREMENT; i++) {
2000084c:	2300      	movs	r3, #0
2000084e:	4aa0      	ldr	r2, [pc, #640]	; (20000ad0 <main+0x316>)
20000850:	18ba      	adds	r2, r7, r2
20000852:	6013      	str	r3, [r2, #0]
20000854:	e02a      	b.n	200008ac <main+0xf2>
				snake_tail[points] = create_tail(snake_head->posx,snake_head->posy);
20000856:	4a9a      	ldr	r2, [pc, #616]	; (20000ac0 <main+0x306>)
20000858:	18bb      	adds	r3, r7, r2
2000085a:	681b      	ldr	r3, [r3, #0]
2000085c:	68d9      	ldr	r1, [r3, #12]
2000085e:	18bb      	adds	r3, r7, r2
20000860:	681b      	ldr	r3, [r3, #0]
20000862:	691a      	ldr	r2, [r3, #16]
20000864:	4b97      	ldr	r3, [pc, #604]	; (20000ac4 <main+0x30a>)
20000866:	681b      	ldr	r3, [r3, #0]
20000868:	489a      	ldr	r0, [pc, #616]	; (20000ad4 <main+0x31a>)
2000086a:	4e9b      	ldr	r6, [pc, #620]	; (20000ad8 <main+0x31e>)
2000086c:	19bc      	adds	r4, r7, r6
2000086e:	1825      	adds	r5, r4, r0
20000870:	001c      	movs	r4, r3
20000872:	00e4      	lsls	r4, r4, #3
20000874:	18e4      	adds	r4, r4, r3
20000876:	00a3      	lsls	r3, r4, #2
20000878:	001c      	movs	r4, r3
2000087a:	003b      	movs	r3, r7
2000087c:	0018      	movs	r0, r3
2000087e:	f7ff fe9b 	bl	200005b8 <create_tail>
20000882:	4b96      	ldr	r3, [pc, #600]	; (20000adc <main+0x322>)
20000884:	19ba      	adds	r2, r7, r6
20000886:	18d2      	adds	r2, r2, r3
20000888:	192b      	adds	r3, r5, r4
2000088a:	ca13      	ldmia	r2!, {r0, r1, r4}
2000088c:	c313      	stmia	r3!, {r0, r1, r4}
2000088e:	ca13      	ldmia	r2!, {r0, r1, r4}
20000890:	c313      	stmia	r3!, {r0, r1, r4}
20000892:	ca13      	ldmia	r2!, {r0, r1, r4}
20000894:	c313      	stmia	r3!, {r0, r1, r4}
				// tally new size of snake by increasing points
				points++;
20000896:	4b8b      	ldr	r3, [pc, #556]	; (20000ac4 <main+0x30a>)
20000898:	681b      	ldr	r3, [r3, #0]
2000089a:	1c5a      	adds	r2, r3, #1
2000089c:	4b89      	ldr	r3, [pc, #548]	; (20000ac4 <main+0x30a>)
2000089e:	601a      	str	r2, [r3, #0]
			for (int i = 0; i < TAIL_INCREMENT; i++) {
200008a0:	4a8b      	ldr	r2, [pc, #556]	; (20000ad0 <main+0x316>)
200008a2:	18bb      	adds	r3, r7, r2
200008a4:	681b      	ldr	r3, [r3, #0]
200008a6:	3301      	adds	r3, #1
200008a8:	18ba      	adds	r2, r7, r2
200008aa:	6013      	str	r3, [r2, #0]
200008ac:	4b88      	ldr	r3, [pc, #544]	; (20000ad0 <main+0x316>)
200008ae:	18fb      	adds	r3, r7, r3
200008b0:	681b      	ldr	r3, [r3, #0]
200008b2:	2b09      	cmp	r3, #9
200008b4:	ddcf      	ble.n	20000856 <main+0x9c>
200008b6:	e09b      	b.n	200009f0 <main+0x236>
			}
			
		} else if (points>0) {
200008b8:	4b82      	ldr	r3, [pc, #520]	; (20000ac4 <main+0x30a>)
200008ba:	681b      	ldr	r3, [r3, #0]
200008bc:	2b00      	cmp	r3, #0
200008be:	d100      	bne.n	200008c2 <main+0x108>
200008c0:	e096      	b.n	200009f0 <main+0x236>
			// else move entire tail forward
			for (int i=0; i<points-1; i++) {
200008c2:	2300      	movs	r3, #0
200008c4:	4a86      	ldr	r2, [pc, #536]	; (20000ae0 <main+0x326>)
200008c6:	18ba      	adds	r2, r7, r2
200008c8:	6013      	str	r3, [r2, #0]
200008ca:	e067      	b.n	2000099c <main+0x1e2>
				move_o1_o2(snake_tail[i], snake_tail[i+1]);
200008cc:	4d84      	ldr	r5, [pc, #528]	; (20000ae0 <main+0x326>)
200008ce:	197b      	adds	r3, r7, r5
200008d0:	681b      	ldr	r3, [r3, #0]
200008d2:	1c59      	adds	r1, r3, #1
200008d4:	4b7f      	ldr	r3, [pc, #508]	; (20000ad4 <main+0x31a>)
200008d6:	4e80      	ldr	r6, [pc, #512]	; (20000ad8 <main+0x31e>)
200008d8:	19ba      	adds	r2, r7, r6
200008da:	18d4      	adds	r4, r2, r3
200008dc:	197b      	adds	r3, r7, r5
200008de:	681a      	ldr	r2, [r3, #0]
200008e0:	0013      	movs	r3, r2
200008e2:	00db      	lsls	r3, r3, #3
200008e4:	189b      	adds	r3, r3, r2
200008e6:	009b      	lsls	r3, r3, #2
200008e8:	4a7a      	ldr	r2, [pc, #488]	; (20000ad4 <main+0x31a>)
200008ea:	19b8      	adds	r0, r7, r6
200008ec:	1880      	adds	r0, r0, r2
200008ee:	000a      	movs	r2, r1
200008f0:	00d2      	lsls	r2, r2, #3
200008f2:	1852      	adds	r2, r2, r1
200008f4:	0092      	lsls	r2, r2, #2
200008f6:	2114      	movs	r1, #20
200008f8:	4469      	add	r1, sp
200008fa:	1882      	adds	r2, r0, r2
200008fc:	ca61      	ldmia	r2!, {r0, r5, r6}
200008fe:	c161      	stmia	r1!, {r0, r5, r6}
20000900:	ca61      	ldmia	r2!, {r0, r5, r6}
20000902:	c161      	stmia	r1!, {r0, r5, r6}
20000904:	ca61      	ldmia	r2!, {r0, r5, r6}
20000906:	c161      	stmia	r1!, {r0, r5, r6}
20000908:	2110      	movs	r1, #16
2000090a:	18e2      	adds	r2, r4, r3
2000090c:	1851      	adds	r1, r2, r1
2000090e:	466a      	mov	r2, sp
20000910:	c961      	ldmia	r1!, {r0, r5, r6}
20000912:	c261      	stmia	r2!, {r0, r5, r6}
20000914:	c921      	ldmia	r1!, {r0, r5}
20000916:	c221      	stmia	r2!, {r0, r5}
20000918:	5918      	ldr	r0, [r3, r4]
2000091a:	18e2      	adds	r2, r4, r3
2000091c:	6851      	ldr	r1, [r2, #4]
2000091e:	18e2      	adds	r2, r4, r3
20000920:	6892      	ldr	r2, [r2, #8]
20000922:	18e3      	adds	r3, r4, r3
20000924:	68db      	ldr	r3, [r3, #12]
20000926:	f7ff fe9e 	bl	20000666 <move_o1_o2>
				snake_tail[i].posx=snake_tail[i+1].posx;
2000092a:	4d6d      	ldr	r5, [pc, #436]	; (20000ae0 <main+0x326>)
2000092c:	197b      	adds	r3, r7, r5
2000092e:	681b      	ldr	r3, [r3, #0]
20000930:	1c5a      	adds	r2, r3, #1
20000932:	4b68      	ldr	r3, [pc, #416]	; (20000ad4 <main+0x31a>)
20000934:	4e68      	ldr	r6, [pc, #416]	; (20000ad8 <main+0x31e>)
20000936:	19b9      	adds	r1, r7, r6
20000938:	18c9      	adds	r1, r1, r3
2000093a:	0013      	movs	r3, r2
2000093c:	00db      	lsls	r3, r3, #3
2000093e:	189b      	adds	r3, r3, r2
20000940:	009b      	lsls	r3, r3, #2
20000942:	18cb      	adds	r3, r1, r3
20000944:	330c      	adds	r3, #12
20000946:	6819      	ldr	r1, [r3, #0]
20000948:	4b62      	ldr	r3, [pc, #392]	; (20000ad4 <main+0x31a>)
2000094a:	19ba      	adds	r2, r7, r6
2000094c:	18d0      	adds	r0, r2, r3
2000094e:	197b      	adds	r3, r7, r5
20000950:	681a      	ldr	r2, [r3, #0]
20000952:	0013      	movs	r3, r2
20000954:	00db      	lsls	r3, r3, #3
20000956:	189b      	adds	r3, r3, r2
20000958:	009b      	lsls	r3, r3, #2
2000095a:	18c3      	adds	r3, r0, r3
2000095c:	330c      	adds	r3, #12
2000095e:	6019      	str	r1, [r3, #0]
				snake_tail[i].posy=snake_tail[i+1].posy;
20000960:	197b      	adds	r3, r7, r5
20000962:	681b      	ldr	r3, [r3, #0]
20000964:	1c5a      	adds	r2, r3, #1
20000966:	4b5b      	ldr	r3, [pc, #364]	; (20000ad4 <main+0x31a>)
20000968:	19b9      	adds	r1, r7, r6
2000096a:	18c9      	adds	r1, r1, r3
2000096c:	0013      	movs	r3, r2
2000096e:	00db      	lsls	r3, r3, #3
20000970:	189b      	adds	r3, r3, r2
20000972:	009b      	lsls	r3, r3, #2
20000974:	18cb      	adds	r3, r1, r3
20000976:	3310      	adds	r3, #16
20000978:	6819      	ldr	r1, [r3, #0]
2000097a:	4b56      	ldr	r3, [pc, #344]	; (20000ad4 <main+0x31a>)
2000097c:	19ba      	adds	r2, r7, r6
2000097e:	18d0      	adds	r0, r2, r3
20000980:	197b      	adds	r3, r7, r5
20000982:	681a      	ldr	r2, [r3, #0]
20000984:	0013      	movs	r3, r2
20000986:	00db      	lsls	r3, r3, #3
20000988:	189b      	adds	r3, r3, r2
2000098a:	009b      	lsls	r3, r3, #2
2000098c:	18c3      	adds	r3, r0, r3
2000098e:	3310      	adds	r3, #16
20000990:	6019      	str	r1, [r3, #0]
			for (int i=0; i<points-1; i++) {
20000992:	197b      	adds	r3, r7, r5
20000994:	681b      	ldr	r3, [r3, #0]
20000996:	3301      	adds	r3, #1
20000998:	197a      	adds	r2, r7, r5
2000099a:	6013      	str	r3, [r2, #0]
2000099c:	4b49      	ldr	r3, [pc, #292]	; (20000ac4 <main+0x30a>)
2000099e:	681b      	ldr	r3, [r3, #0]
200009a0:	1e5a      	subs	r2, r3, #1
200009a2:	4b4f      	ldr	r3, [pc, #316]	; (20000ae0 <main+0x326>)
200009a4:	18fb      	adds	r3, r7, r3
200009a6:	681b      	ldr	r3, [r3, #0]
200009a8:	429a      	cmp	r2, r3
200009aa:	d88f      	bhi.n	200008cc <main+0x112>
			}
			// move closest tail piece to previous snake_head position
			snake_tail[points-1].posx = snake_head->posx;
200009ac:	4b45      	ldr	r3, [pc, #276]	; (20000ac4 <main+0x30a>)
200009ae:	681b      	ldr	r3, [r3, #0]
200009b0:	1e5a      	subs	r2, r3, #1
200009b2:	4c43      	ldr	r4, [pc, #268]	; (20000ac0 <main+0x306>)
200009b4:	193b      	adds	r3, r7, r4
200009b6:	681b      	ldr	r3, [r3, #0]
200009b8:	68d9      	ldr	r1, [r3, #12]
200009ba:	4b46      	ldr	r3, [pc, #280]	; (20000ad4 <main+0x31a>)
200009bc:	4d46      	ldr	r5, [pc, #280]	; (20000ad8 <main+0x31e>)
200009be:	1978      	adds	r0, r7, r5
200009c0:	18c0      	adds	r0, r0, r3
200009c2:	0013      	movs	r3, r2
200009c4:	00db      	lsls	r3, r3, #3
200009c6:	189b      	adds	r3, r3, r2
200009c8:	009b      	lsls	r3, r3, #2
200009ca:	18c3      	adds	r3, r0, r3
200009cc:	330c      	adds	r3, #12
200009ce:	6019      	str	r1, [r3, #0]
			snake_tail[points-1].posy = snake_head->posy;			
200009d0:	4b3c      	ldr	r3, [pc, #240]	; (20000ac4 <main+0x30a>)
200009d2:	681b      	ldr	r3, [r3, #0]
200009d4:	1e5a      	subs	r2, r3, #1
200009d6:	193b      	adds	r3, r7, r4
200009d8:	681b      	ldr	r3, [r3, #0]
200009da:	6919      	ldr	r1, [r3, #16]
200009dc:	4b3d      	ldr	r3, [pc, #244]	; (20000ad4 <main+0x31a>)
200009de:	1978      	adds	r0, r7, r5
200009e0:	18c0      	adds	r0, r0, r3
200009e2:	0013      	movs	r3, r2
200009e4:	00db      	lsls	r3, r3, #3
200009e6:	189b      	adds	r3, r3, r2
200009e8:	009b      	lsls	r3, r3, #2
200009ea:	18c3      	adds	r3, r0, r3
200009ec:	3310      	adds	r3, #16
200009ee:	6019      	str	r1, [r3, #0]
		}
		// game logic
		//keypad input
		switch (keyb()) {
200009f0:	f000 f8d8 	bl	20000ba4 <keyb>
200009f4:	0003      	movs	r3, r0
200009f6:	2b08      	cmp	r3, #8
200009f8:	d028      	beq.n	20000a4c <main+0x292>
200009fa:	dc31      	bgt.n	20000a60 <main+0x2a6>
200009fc:	2b06      	cmp	r3, #6
200009fe:	d005      	beq.n	20000a0c <main+0x252>
20000a00:	dc2e      	bgt.n	20000a60 <main+0x2a6>
20000a02:	2b02      	cmp	r3, #2
20000a04:	d017      	beq.n	20000a36 <main+0x27c>
20000a06:	2b04      	cmp	r3, #4
20000a08:	d00a      	beq.n	20000a20 <main+0x266>
20000a0a:	e029      	b.n	20000a60 <main+0x2a6>
			// right
			case 6: snake_head -> set_speed(snake_head, 1, 0); break;
20000a0c:	4a2c      	ldr	r2, [pc, #176]	; (20000ac0 <main+0x306>)
20000a0e:	18bb      	adds	r3, r7, r2
20000a10:	681b      	ldr	r3, [r3, #0]
20000a12:	6a1b      	ldr	r3, [r3, #32]
20000a14:	18ba      	adds	r2, r7, r2
20000a16:	6810      	ldr	r0, [r2, #0]
20000a18:	2200      	movs	r2, #0
20000a1a:	2101      	movs	r1, #1
20000a1c:	4798      	blx	r3
20000a1e:	e01f      	b.n	20000a60 <main+0x2a6>
			// left
			case 4: snake_head -> set_speed(snake_head, -1, 0); break;
20000a20:	4827      	ldr	r0, [pc, #156]	; (20000ac0 <main+0x306>)
20000a22:	183b      	adds	r3, r7, r0
20000a24:	681b      	ldr	r3, [r3, #0]
20000a26:	6a1b      	ldr	r3, [r3, #32]
20000a28:	2201      	movs	r2, #1
20000a2a:	4251      	negs	r1, r2
20000a2c:	183a      	adds	r2, r7, r0
20000a2e:	6810      	ldr	r0, [r2, #0]
20000a30:	2200      	movs	r2, #0
20000a32:	4798      	blx	r3
20000a34:	e014      	b.n	20000a60 <main+0x2a6>
			// up
			case 2: snake_head -> set_speed(snake_head, 0, -1); break;
20000a36:	4922      	ldr	r1, [pc, #136]	; (20000ac0 <main+0x306>)
20000a38:	187b      	adds	r3, r7, r1
20000a3a:	681b      	ldr	r3, [r3, #0]
20000a3c:	6a1b      	ldr	r3, [r3, #32]
20000a3e:	2201      	movs	r2, #1
20000a40:	4252      	negs	r2, r2
20000a42:	1879      	adds	r1, r7, r1
20000a44:	6808      	ldr	r0, [r1, #0]
20000a46:	2100      	movs	r1, #0
20000a48:	4798      	blx	r3
20000a4a:	e009      	b.n	20000a60 <main+0x2a6>
			// down
			case 8: snake_head -> set_speed(snake_head, 0, 1); break;
20000a4c:	4a1c      	ldr	r2, [pc, #112]	; (20000ac0 <main+0x306>)
20000a4e:	18bb      	adds	r3, r7, r2
20000a50:	681b      	ldr	r3, [r3, #0]
20000a52:	6a1b      	ldr	r3, [r3, #32]
20000a54:	18ba      	adds	r2, r7, r2
20000a56:	6810      	ldr	r0, [r2, #0]
20000a58:	2201      	movs	r2, #1
20000a5a:	2100      	movs	r1, #0
20000a5c:	4798      	blx	r3
20000a5e:	46c0      	nop			; (mov r8, r8)
		}
			
		// move snake
		move_snake(snake_head);
20000a60:	4b17      	ldr	r3, [pc, #92]	; (20000ac0 <main+0x306>)
20000a62:	18fb      	adds	r3, r7, r3
20000a64:	681b      	ldr	r3, [r3, #0]
20000a66:	0018      	movs	r0, r3
20000a68:	f7ff fd7a 	bl	20000560 <move_snake>
		// delay
		delay_milli(30);
20000a6c:	201e      	movs	r0, #30
20000a6e:	f7ff fb17 	bl	200000a0 <delay_milli>
	while (!game_over(snake_head, snake_tail, points)) 
20000a72:	4b14      	ldr	r3, [pc, #80]	; (20000ac4 <main+0x30a>)
20000a74:	681b      	ldr	r3, [r3, #0]
20000a76:	001a      	movs	r2, r3
20000a78:	2328      	movs	r3, #40	; 0x28
20000a7a:	18f9      	adds	r1, r7, r3
20000a7c:	4b10      	ldr	r3, [pc, #64]	; (20000ac0 <main+0x306>)
20000a7e:	18fb      	adds	r3, r7, r3
20000a80:	681b      	ldr	r3, [r3, #0]
20000a82:	0018      	movs	r0, r3
20000a84:	f7ff fe56 	bl	20000734 <game_over>
20000a88:	1e03      	subs	r3, r0, #0
20000a8a:	d100      	bne.n	20000a8e <main+0x2d4>
20000a8c:	e6b0      	b.n	200007f0 <main+0x36>
	}
	// game over
	delay_milli(10);
20000a8e:	200a      	movs	r0, #10
20000a90:	f7ff fb06 	bl	200000a0 <delay_milli>
	graphic_clear_screen();
20000a94:	f7ff fccc 	bl	20000430 <graphic_clear_screen>
	write_ascii("Game over! ", "");
20000a98:	4a0b      	ldr	r2, [pc, #44]	; (20000ac8 <main+0x30e>)
20000a9a:	4b12      	ldr	r3, [pc, #72]	; (20000ae4 <main+0x32a>)
20000a9c:	0011      	movs	r1, r2
20000a9e:	0018      	movs	r0, r3
20000aa0:	f7ff fc90 	bl	200003c4 <write_ascii>

}
20000aa4:	46c0      	nop			; (mov r8, r8)
20000aa6:	46bd      	mov	sp, r7
20000aa8:	4b0f      	ldr	r3, [pc, #60]	; (20000ae8 <main+0x32e>)
20000aaa:	449d      	add	sp, r3
20000aac:	bdf0      	pop	{r4, r5, r6, r7, pc}
20000aae:	46c0      	nop			; (mov r8, r8)
20000ab0:	ffffb78c 			; <UNDEFINED> instruction: 0xffffb78c
20000ab4:	20006fdc 	ldrdcs	r6, [r0], -ip
20000ab8:	0000482c 	andeq	r4, r0, ip, lsr #16
20000abc:	20003fac 	andcs	r3, r0, ip, lsr #31
20000ac0:	00004828 	andeq	r4, r0, r8, lsr #16
20000ac4:	2000a034 	andcs	sl, r0, r4, lsr r0
20000ac8:	2000a00c 	andcs	sl, r0, ip
20000acc:	2000a010 	andcs	sl, r0, r0, lsl r0
20000ad0:	00004834 	andeq	r4, r0, r4, lsr r8
20000ad4:	ffffb7f0 			; <UNDEFINED> instruction: 0xffffb7f0
20000ad8:	00004838 	andeq	r4, r0, r8, lsr r8
20000adc:	ffffb7c8 			; <UNDEFINED> instruction: 0xffffb7c8
20000ae0:	00004830 	andeq	r4, r0, r0, lsr r8
20000ae4:	2000a018 	andcs	sl, r0, r8, lsl r0
20000ae8:	0000483c 	andeq	r4, r0, ip, lsr r8

20000aec <activateRow>:

/*
 * Helper Functions
 */
void activateRow(unsigned int row)
{
20000aec:	b580      	push	{r7, lr}
20000aee:	b082      	sub	sp, #8
20000af0:	af00      	add	r7, sp, #0
20000af2:	6078      	str	r0, [r7, #4]
	switch(row){
20000af4:	687b      	ldr	r3, [r7, #4]
20000af6:	2b04      	cmp	r3, #4
20000af8:	d01b      	beq.n	20000b32 <activateRow+0x46>
20000afa:	687b      	ldr	r3, [r7, #4]
20000afc:	2b04      	cmp	r3, #4
20000afe:	d81c      	bhi.n	20000b3a <activateRow+0x4e>
20000b00:	687b      	ldr	r3, [r7, #4]
20000b02:	2b03      	cmp	r3, #3
20000b04:	d011      	beq.n	20000b2a <activateRow+0x3e>
20000b06:	687b      	ldr	r3, [r7, #4]
20000b08:	2b03      	cmp	r3, #3
20000b0a:	d816      	bhi.n	20000b3a <activateRow+0x4e>
20000b0c:	687b      	ldr	r3, [r7, #4]
20000b0e:	2b01      	cmp	r3, #1
20000b10:	d003      	beq.n	20000b1a <activateRow+0x2e>
20000b12:	687b      	ldr	r3, [r7, #4]
20000b14:	2b02      	cmp	r3, #2
20000b16:	d004      	beq.n	20000b22 <activateRow+0x36>
20000b18:	e00f      	b.n	20000b3a <activateRow+0x4e>
		case 1: GPIO_D.odrHigh=0x10; break;
20000b1a:	4b0c      	ldr	r3, [pc, #48]	; (20000b4c <activateRow+0x60>)
20000b1c:	2210      	movs	r2, #16
20000b1e:	755a      	strb	r2, [r3, #21]
20000b20:	e00f      	b.n	20000b42 <activateRow+0x56>
		case 2: GPIO_D.odrHigh=0x20; break;
20000b22:	4b0a      	ldr	r3, [pc, #40]	; (20000b4c <activateRow+0x60>)
20000b24:	2220      	movs	r2, #32
20000b26:	755a      	strb	r2, [r3, #21]
20000b28:	e00b      	b.n	20000b42 <activateRow+0x56>
		case 3: GPIO_D.odrHigh=0x40; break;
20000b2a:	4b08      	ldr	r3, [pc, #32]	; (20000b4c <activateRow+0x60>)
20000b2c:	2240      	movs	r2, #64	; 0x40
20000b2e:	755a      	strb	r2, [r3, #21]
20000b30:	e007      	b.n	20000b42 <activateRow+0x56>
		case 4: GPIO_D.odrHigh=0x80; break;
20000b32:	4b06      	ldr	r3, [pc, #24]	; (20000b4c <activateRow+0x60>)
20000b34:	2280      	movs	r2, #128	; 0x80
20000b36:	755a      	strb	r2, [r3, #21]
20000b38:	e003      	b.n	20000b42 <activateRow+0x56>
		
		default: GPIO_D.odrHigh=0;
20000b3a:	4b04      	ldr	r3, [pc, #16]	; (20000b4c <activateRow+0x60>)
20000b3c:	2200      	movs	r2, #0
20000b3e:	755a      	strb	r2, [r3, #21]
	}
}
20000b40:	46c0      	nop			; (mov r8, r8)
20000b42:	46c0      	nop			; (mov r8, r8)
20000b44:	46bd      	mov	sp, r7
20000b46:	b002      	add	sp, #8
20000b48:	bd80      	pop	{r7, pc}
20000b4a:	46c0      	nop			; (mov r8, r8)
20000b4c:	40020c00 	andmi	r0, r2, r0, lsl #24

20000b50 <readCol>:

int readCol(void)
{
20000b50:	b580      	push	{r7, lr}
20000b52:	b082      	sub	sp, #8
20000b54:	af00      	add	r7, sp, #0
	unsigned char c;
	c = GPIO_D.idrHigh;
20000b56:	4a12      	ldr	r2, [pc, #72]	; (20000ba0 <readCol+0x50>)
20000b58:	1dfb      	adds	r3, r7, #7
20000b5a:	7c52      	ldrb	r2, [r2, #17]
20000b5c:	701a      	strb	r2, [r3, #0]
	if(c & 8) return 4;
20000b5e:	1dfb      	adds	r3, r7, #7
20000b60:	781b      	ldrb	r3, [r3, #0]
20000b62:	2208      	movs	r2, #8
20000b64:	4013      	ands	r3, r2
20000b66:	d001      	beq.n	20000b6c <readCol+0x1c>
20000b68:	2304      	movs	r3, #4
20000b6a:	e015      	b.n	20000b98 <readCol+0x48>
	if(c & 4) return 3;
20000b6c:	1dfb      	adds	r3, r7, #7
20000b6e:	781b      	ldrb	r3, [r3, #0]
20000b70:	2204      	movs	r2, #4
20000b72:	4013      	ands	r3, r2
20000b74:	d001      	beq.n	20000b7a <readCol+0x2a>
20000b76:	2303      	movs	r3, #3
20000b78:	e00e      	b.n	20000b98 <readCol+0x48>
	if(c & 2) return 2;
20000b7a:	1dfb      	adds	r3, r7, #7
20000b7c:	781b      	ldrb	r3, [r3, #0]
20000b7e:	2202      	movs	r2, #2
20000b80:	4013      	ands	r3, r2
20000b82:	d001      	beq.n	20000b88 <readCol+0x38>
20000b84:	2302      	movs	r3, #2
20000b86:	e007      	b.n	20000b98 <readCol+0x48>
	if(c & 1) return 1;
20000b88:	1dfb      	adds	r3, r7, #7
20000b8a:	781b      	ldrb	r3, [r3, #0]
20000b8c:	2201      	movs	r2, #1
20000b8e:	4013      	ands	r3, r2
20000b90:	d001      	beq.n	20000b96 <readCol+0x46>
20000b92:	2301      	movs	r3, #1
20000b94:	e000      	b.n	20000b98 <readCol+0x48>
	return 0;
20000b96:	2300      	movs	r3, #0
}
20000b98:	0018      	movs	r0, r3
20000b9a:	46bd      	mov	sp, r7
20000b9c:	b002      	add	sp, #8
20000b9e:	bd80      	pop	{r7, pc}
20000ba0:	40020c00 	andmi	r0, r2, r0, lsl #24

20000ba4 <keyb>:

/*
 * Main Function
 */
unsigned char keyb(void)
{
20000ba4:	b590      	push	{r4, r7, lr}
20000ba6:	b087      	sub	sp, #28
20000ba8:	af00      	add	r7, sp, #0
	unsigned char key[]=
20000baa:	003b      	movs	r3, r7
20000bac:	4a16      	ldr	r2, [pc, #88]	; (20000c08 <keyb+0x64>)
20000bae:	ca13      	ldmia	r2!, {r0, r1, r4}
20000bb0:	c313      	stmia	r3!, {r0, r1, r4}
20000bb2:	6812      	ldr	r2, [r2, #0]
20000bb4:	601a      	str	r2, [r3, #0]
	{1,2,3,0xA,4,5,6,0xB,7,8,9,0xC,0xE,0,0xF,0xD};
	int row, col;
	for(row = 1; row <= 4; row++){
20000bb6:	2301      	movs	r3, #1
20000bb8:	617b      	str	r3, [r7, #20]
20000bba:	e019      	b.n	20000bf0 <keyb+0x4c>
		activateRow(row);
20000bbc:	697b      	ldr	r3, [r7, #20]
20000bbe:	0018      	movs	r0, r3
20000bc0:	f7ff ff94 	bl	20000aec <activateRow>
		if(col=readCol()){
20000bc4:	f7ff ffc4 	bl	20000b50 <readCol>
20000bc8:	0003      	movs	r3, r0
20000bca:	613b      	str	r3, [r7, #16]
20000bcc:	693b      	ldr	r3, [r7, #16]
20000bce:	2b00      	cmp	r3, #0
20000bd0:	d00b      	beq.n	20000bea <keyb+0x46>
			activateRow(0);
20000bd2:	2000      	movs	r0, #0
20000bd4:	f7ff ff8a 	bl	20000aec <activateRow>
			return key[4*(row-1)+(col-1)];
20000bd8:	697b      	ldr	r3, [r7, #20]
20000bda:	3b01      	subs	r3, #1
20000bdc:	009a      	lsls	r2, r3, #2
20000bde:	693b      	ldr	r3, [r7, #16]
20000be0:	3b01      	subs	r3, #1
20000be2:	18d3      	adds	r3, r2, r3
20000be4:	003a      	movs	r2, r7
20000be6:	5cd3      	ldrb	r3, [r2, r3]
20000be8:	e009      	b.n	20000bfe <keyb+0x5a>
	for(row = 1; row <= 4; row++){
20000bea:	697b      	ldr	r3, [r7, #20]
20000bec:	3301      	adds	r3, #1
20000bee:	617b      	str	r3, [r7, #20]
20000bf0:	697b      	ldr	r3, [r7, #20]
20000bf2:	2b04      	cmp	r3, #4
20000bf4:	dde2      	ble.n	20000bbc <keyb+0x18>
		}
	}
	activateRow(0);
20000bf6:	2000      	movs	r0, #0
20000bf8:	f7ff ff78 	bl	20000aec <activateRow>
	return(0xFF);
20000bfc:	23ff      	movs	r3, #255	; 0xff
20000bfe:	0018      	movs	r0, r3
20000c00:	46bd      	mov	sp, r7
20000c02:	b007      	add	sp, #28
20000c04:	bd90      	pop	{r4, r7, pc}
20000c06:	46c0      	nop			; (mov r8, r8)
20000c08:	2000a024 	andcs	sl, r0, r4, lsr #32

20000c0c <init_keypad>:
#include "declarations.h"

// starta klockorna
//	*((unsigned long *) 0x40023830) = 0x18;
 void init_keypad() 
 {
20000c0c:	b580      	push	{r7, lr}
20000c0e:	af00      	add	r7, sp, #0
	GPIO_D.moder = 0x55000000;
20000c10:	4b08      	ldr	r3, [pc, #32]	; (20000c34 <init_keypad+0x28>)
20000c12:	22aa      	movs	r2, #170	; 0xaa
20000c14:	05d2      	lsls	r2, r2, #23
20000c16:	601a      	str	r2, [r3, #0]
	GPIO_D.otyper = 0;
20000c18:	4b06      	ldr	r3, [pc, #24]	; (20000c34 <init_keypad+0x28>)
20000c1a:	2200      	movs	r2, #0
20000c1c:	809a      	strh	r2, [r3, #4]
	GPIO_D.pupdr = 0xAA0000;
20000c1e:	4b05      	ldr	r3, [pc, #20]	; (20000c34 <init_keypad+0x28>)
20000c20:	22aa      	movs	r2, #170	; 0xaa
20000c22:	0412      	lsls	r2, r2, #16
20000c24:	60da      	str	r2, [r3, #12]
	GPIO_D.ospeedr = 0xFF000000;
20000c26:	4b03      	ldr	r3, [pc, #12]	; (20000c34 <init_keypad+0x28>)
20000c28:	22ff      	movs	r2, #255	; 0xff
20000c2a:	0612      	lsls	r2, r2, #24
20000c2c:	609a      	str	r2, [r3, #8]
}
20000c2e:	46c0      	nop			; (mov r8, r8)
20000c30:	46bd      	mov	sp, r7
20000c32:	bd80      	pop	{r7, pc}
20000c34:	40020c00 	andmi	r0, r2, r0, lsl #24

20000c38 <init_ascii>:

void init_ascii()
{
20000c38:	b580      	push	{r7, lr}
20000c3a:	af00      	add	r7, sp, #0
	GPIO_E.moder = 0x55555555;
20000c3c:	4b05      	ldr	r3, [pc, #20]	; (20000c54 <init_ascii+0x1c>)
20000c3e:	4a06      	ldr	r2, [pc, #24]	; (20000c58 <init_ascii+0x20>)
20000c40:	601a      	str	r2, [r3, #0]
	GPIO_E.pupdr = 0x55550000;
20000c42:	4b04      	ldr	r3, [pc, #16]	; (20000c54 <init_ascii+0x1c>)
20000c44:	4a05      	ldr	r2, [pc, #20]	; (20000c5c <init_ascii+0x24>)
20000c46:	60da      	str	r2, [r3, #12]
	GPIO_E.otyper = 0;
20000c48:	4b02      	ldr	r3, [pc, #8]	; (20000c54 <init_ascii+0x1c>)
20000c4a:	2200      	movs	r2, #0
20000c4c:	809a      	strh	r2, [r3, #4]
}
20000c4e:	46c0      	nop			; (mov r8, r8)
20000c50:	46bd      	mov	sp, r7
20000c52:	bd80      	pop	{r7, pc}
20000c54:	40021000 	andmi	r1, r2, r0
20000c58:	55555555 	ldrbpl	r5, [r5, #-1365]	; 0xfffffaab
20000c5c:	55550000 	ldrbpl	r0, [r5, #-0]

20000c60 <init_timer6>:

void init_timer6()
{
20000c60:	b580      	push	{r7, lr}
20000c62:	af00      	add	r7, sp, #0
	*TIM6_CR1 &= ~CEN; //stoppa rknarmodul
20000c64:	4b0b      	ldr	r3, [pc, #44]	; (20000c94 <init_timer6+0x34>)
20000c66:	881b      	ldrh	r3, [r3, #0]
20000c68:	b29b      	uxth	r3, r3
20000c6a:	4a0a      	ldr	r2, [pc, #40]	; (20000c94 <init_timer6+0x34>)
20000c6c:	2101      	movs	r1, #1
20000c6e:	438b      	bics	r3, r1
20000c70:	b29b      	uxth	r3, r3
20000c72:	8013      	strh	r3, [r2, #0]
	*TIM6_ARR = 0xFFFF; //stt rknarreg. till maxvrde
20000c74:	4b08      	ldr	r3, [pc, #32]	; (20000c98 <init_timer6+0x38>)
20000c76:	2201      	movs	r2, #1
20000c78:	4252      	negs	r2, r2
20000c7a:	801a      	strh	r2, [r3, #0]
	*TIM6_CR1 |= (CEN|UDIS); //inget update-event
20000c7c:	4b05      	ldr	r3, [pc, #20]	; (20000c94 <init_timer6+0x34>)
20000c7e:	881b      	ldrh	r3, [r3, #0]
20000c80:	b29b      	uxth	r3, r3
20000c82:	4a04      	ldr	r2, [pc, #16]	; (20000c94 <init_timer6+0x34>)
20000c84:	2103      	movs	r1, #3
20000c86:	430b      	orrs	r3, r1
20000c88:	b29b      	uxth	r3, r3
20000c8a:	8013      	strh	r3, [r2, #0]
	//starta rknarmodul
}
20000c8c:	46c0      	nop			; (mov r8, r8)
20000c8e:	46bd      	mov	sp, r7
20000c90:	bd80      	pop	{r7, pc}
20000c92:	46c0      	nop			; (mov r8, r8)
20000c94:	40001000 	andmi	r1, r0, r0
20000c98:	4000102c 	andmi	r1, r0, ip, lsr #32

20000c9c <init_app>:

void init_app()
{
20000c9c:	b580      	push	{r7, lr}
20000c9e:	af00      	add	r7, sp, #0
	init_keypad();
20000ca0:	f7ff ffb4 	bl	20000c0c <init_keypad>
	init_ascii();
20000ca4:	f7ff ffc8 	bl	20000c38 <init_ascii>
	init_timer6();
20000ca8:	f7ff ffda 	bl	20000c60 <init_timer6>
20000cac:	46c0      	nop			; (mov r8, r8)
20000cae:	46bd      	mov	sp, r7
20000cb0:	bd80      	pop	{r7, pc}
20000cb2:	46c0      	nop			; (mov r8, r8)

20000cb4 <__udivsi3>:
20000cb4:	2200      	movs	r2, #0
20000cb6:	0843      	lsrs	r3, r0, #1
20000cb8:	428b      	cmp	r3, r1
20000cba:	d374      	bcc.n	20000da6 <__udivsi3+0xf2>
20000cbc:	0903      	lsrs	r3, r0, #4
20000cbe:	428b      	cmp	r3, r1
20000cc0:	d35f      	bcc.n	20000d82 <__udivsi3+0xce>
20000cc2:	0a03      	lsrs	r3, r0, #8
20000cc4:	428b      	cmp	r3, r1
20000cc6:	d344      	bcc.n	20000d52 <__udivsi3+0x9e>
20000cc8:	0b03      	lsrs	r3, r0, #12
20000cca:	428b      	cmp	r3, r1
20000ccc:	d328      	bcc.n	20000d20 <__udivsi3+0x6c>
20000cce:	0c03      	lsrs	r3, r0, #16
20000cd0:	428b      	cmp	r3, r1
20000cd2:	d30d      	bcc.n	20000cf0 <__udivsi3+0x3c>
20000cd4:	22ff      	movs	r2, #255	; 0xff
20000cd6:	0209      	lsls	r1, r1, #8
20000cd8:	ba12      	rev	r2, r2
20000cda:	0c03      	lsrs	r3, r0, #16
20000cdc:	428b      	cmp	r3, r1
20000cde:	d302      	bcc.n	20000ce6 <__udivsi3+0x32>
20000ce0:	1212      	asrs	r2, r2, #8
20000ce2:	0209      	lsls	r1, r1, #8
20000ce4:	d065      	beq.n	20000db2 <__udivsi3+0xfe>
20000ce6:	0b03      	lsrs	r3, r0, #12
20000ce8:	428b      	cmp	r3, r1
20000cea:	d319      	bcc.n	20000d20 <__udivsi3+0x6c>
20000cec:	e000      	b.n	20000cf0 <__udivsi3+0x3c>
20000cee:	0a09      	lsrs	r1, r1, #8
20000cf0:	0bc3      	lsrs	r3, r0, #15
20000cf2:	428b      	cmp	r3, r1
20000cf4:	d301      	bcc.n	20000cfa <__udivsi3+0x46>
20000cf6:	03cb      	lsls	r3, r1, #15
20000cf8:	1ac0      	subs	r0, r0, r3
20000cfa:	4152      	adcs	r2, r2
20000cfc:	0b83      	lsrs	r3, r0, #14
20000cfe:	428b      	cmp	r3, r1
20000d00:	d301      	bcc.n	20000d06 <__udivsi3+0x52>
20000d02:	038b      	lsls	r3, r1, #14
20000d04:	1ac0      	subs	r0, r0, r3
20000d06:	4152      	adcs	r2, r2
20000d08:	0b43      	lsrs	r3, r0, #13
20000d0a:	428b      	cmp	r3, r1
20000d0c:	d301      	bcc.n	20000d12 <__udivsi3+0x5e>
20000d0e:	034b      	lsls	r3, r1, #13
20000d10:	1ac0      	subs	r0, r0, r3
20000d12:	4152      	adcs	r2, r2
20000d14:	0b03      	lsrs	r3, r0, #12
20000d16:	428b      	cmp	r3, r1
20000d18:	d301      	bcc.n	20000d1e <__udivsi3+0x6a>
20000d1a:	030b      	lsls	r3, r1, #12
20000d1c:	1ac0      	subs	r0, r0, r3
20000d1e:	4152      	adcs	r2, r2
20000d20:	0ac3      	lsrs	r3, r0, #11
20000d22:	428b      	cmp	r3, r1
20000d24:	d301      	bcc.n	20000d2a <__udivsi3+0x76>
20000d26:	02cb      	lsls	r3, r1, #11
20000d28:	1ac0      	subs	r0, r0, r3
20000d2a:	4152      	adcs	r2, r2
20000d2c:	0a83      	lsrs	r3, r0, #10
20000d2e:	428b      	cmp	r3, r1
20000d30:	d301      	bcc.n	20000d36 <__udivsi3+0x82>
20000d32:	028b      	lsls	r3, r1, #10
20000d34:	1ac0      	subs	r0, r0, r3
20000d36:	4152      	adcs	r2, r2
20000d38:	0a43      	lsrs	r3, r0, #9
20000d3a:	428b      	cmp	r3, r1
20000d3c:	d301      	bcc.n	20000d42 <__udivsi3+0x8e>
20000d3e:	024b      	lsls	r3, r1, #9
20000d40:	1ac0      	subs	r0, r0, r3
20000d42:	4152      	adcs	r2, r2
20000d44:	0a03      	lsrs	r3, r0, #8
20000d46:	428b      	cmp	r3, r1
20000d48:	d301      	bcc.n	20000d4e <__udivsi3+0x9a>
20000d4a:	020b      	lsls	r3, r1, #8
20000d4c:	1ac0      	subs	r0, r0, r3
20000d4e:	4152      	adcs	r2, r2
20000d50:	d2cd      	bcs.n	20000cee <__udivsi3+0x3a>
20000d52:	09c3      	lsrs	r3, r0, #7
20000d54:	428b      	cmp	r3, r1
20000d56:	d301      	bcc.n	20000d5c <__udivsi3+0xa8>
20000d58:	01cb      	lsls	r3, r1, #7
20000d5a:	1ac0      	subs	r0, r0, r3
20000d5c:	4152      	adcs	r2, r2
20000d5e:	0983      	lsrs	r3, r0, #6
20000d60:	428b      	cmp	r3, r1
20000d62:	d301      	bcc.n	20000d68 <__udivsi3+0xb4>
20000d64:	018b      	lsls	r3, r1, #6
20000d66:	1ac0      	subs	r0, r0, r3
20000d68:	4152      	adcs	r2, r2
20000d6a:	0943      	lsrs	r3, r0, #5
20000d6c:	428b      	cmp	r3, r1
20000d6e:	d301      	bcc.n	20000d74 <__udivsi3+0xc0>
20000d70:	014b      	lsls	r3, r1, #5
20000d72:	1ac0      	subs	r0, r0, r3
20000d74:	4152      	adcs	r2, r2
20000d76:	0903      	lsrs	r3, r0, #4
20000d78:	428b      	cmp	r3, r1
20000d7a:	d301      	bcc.n	20000d80 <__udivsi3+0xcc>
20000d7c:	010b      	lsls	r3, r1, #4
20000d7e:	1ac0      	subs	r0, r0, r3
20000d80:	4152      	adcs	r2, r2
20000d82:	08c3      	lsrs	r3, r0, #3
20000d84:	428b      	cmp	r3, r1
20000d86:	d301      	bcc.n	20000d8c <__udivsi3+0xd8>
20000d88:	00cb      	lsls	r3, r1, #3
20000d8a:	1ac0      	subs	r0, r0, r3
20000d8c:	4152      	adcs	r2, r2
20000d8e:	0883      	lsrs	r3, r0, #2
20000d90:	428b      	cmp	r3, r1
20000d92:	d301      	bcc.n	20000d98 <__udivsi3+0xe4>
20000d94:	008b      	lsls	r3, r1, #2
20000d96:	1ac0      	subs	r0, r0, r3
20000d98:	4152      	adcs	r2, r2
20000d9a:	0843      	lsrs	r3, r0, #1
20000d9c:	428b      	cmp	r3, r1
20000d9e:	d301      	bcc.n	20000da4 <__udivsi3+0xf0>
20000da0:	004b      	lsls	r3, r1, #1
20000da2:	1ac0      	subs	r0, r0, r3
20000da4:	4152      	adcs	r2, r2
20000da6:	1a41      	subs	r1, r0, r1
20000da8:	d200      	bcs.n	20000dac <__udivsi3+0xf8>
20000daa:	4601      	mov	r1, r0
20000dac:	4152      	adcs	r2, r2
20000dae:	4610      	mov	r0, r2
20000db0:	4770      	bx	lr
20000db2:	e7ff      	b.n	20000db4 <__udivsi3+0x100>
20000db4:	b501      	push	{r0, lr}
20000db6:	2000      	movs	r0, #0
20000db8:	f000 f8f0 	bl	20000f9c <__aeabi_idiv0>
20000dbc:	bd02      	pop	{r1, pc}
20000dbe:	46c0      	nop			; (mov r8, r8)

20000dc0 <__aeabi_uidivmod>:
20000dc0:	2900      	cmp	r1, #0
20000dc2:	d0f7      	beq.n	20000db4 <__udivsi3+0x100>
20000dc4:	e776      	b.n	20000cb4 <__udivsi3>
20000dc6:	4770      	bx	lr

20000dc8 <__divsi3>:
20000dc8:	4603      	mov	r3, r0
20000dca:	430b      	orrs	r3, r1
20000dcc:	d47f      	bmi.n	20000ece <__divsi3+0x106>
20000dce:	2200      	movs	r2, #0
20000dd0:	0843      	lsrs	r3, r0, #1
20000dd2:	428b      	cmp	r3, r1
20000dd4:	d374      	bcc.n	20000ec0 <__divsi3+0xf8>
20000dd6:	0903      	lsrs	r3, r0, #4
20000dd8:	428b      	cmp	r3, r1
20000dda:	d35f      	bcc.n	20000e9c <__divsi3+0xd4>
20000ddc:	0a03      	lsrs	r3, r0, #8
20000dde:	428b      	cmp	r3, r1
20000de0:	d344      	bcc.n	20000e6c <__divsi3+0xa4>
20000de2:	0b03      	lsrs	r3, r0, #12
20000de4:	428b      	cmp	r3, r1
20000de6:	d328      	bcc.n	20000e3a <__divsi3+0x72>
20000de8:	0c03      	lsrs	r3, r0, #16
20000dea:	428b      	cmp	r3, r1
20000dec:	d30d      	bcc.n	20000e0a <__divsi3+0x42>
20000dee:	22ff      	movs	r2, #255	; 0xff
20000df0:	0209      	lsls	r1, r1, #8
20000df2:	ba12      	rev	r2, r2
20000df4:	0c03      	lsrs	r3, r0, #16
20000df6:	428b      	cmp	r3, r1
20000df8:	d302      	bcc.n	20000e00 <__divsi3+0x38>
20000dfa:	1212      	asrs	r2, r2, #8
20000dfc:	0209      	lsls	r1, r1, #8
20000dfe:	d065      	beq.n	20000ecc <__divsi3+0x104>
20000e00:	0b03      	lsrs	r3, r0, #12
20000e02:	428b      	cmp	r3, r1
20000e04:	d319      	bcc.n	20000e3a <__divsi3+0x72>
20000e06:	e000      	b.n	20000e0a <__divsi3+0x42>
20000e08:	0a09      	lsrs	r1, r1, #8
20000e0a:	0bc3      	lsrs	r3, r0, #15
20000e0c:	428b      	cmp	r3, r1
20000e0e:	d301      	bcc.n	20000e14 <__divsi3+0x4c>
20000e10:	03cb      	lsls	r3, r1, #15
20000e12:	1ac0      	subs	r0, r0, r3
20000e14:	4152      	adcs	r2, r2
20000e16:	0b83      	lsrs	r3, r0, #14
20000e18:	428b      	cmp	r3, r1
20000e1a:	d301      	bcc.n	20000e20 <__divsi3+0x58>
20000e1c:	038b      	lsls	r3, r1, #14
20000e1e:	1ac0      	subs	r0, r0, r3
20000e20:	4152      	adcs	r2, r2
20000e22:	0b43      	lsrs	r3, r0, #13
20000e24:	428b      	cmp	r3, r1
20000e26:	d301      	bcc.n	20000e2c <__divsi3+0x64>
20000e28:	034b      	lsls	r3, r1, #13
20000e2a:	1ac0      	subs	r0, r0, r3
20000e2c:	4152      	adcs	r2, r2
20000e2e:	0b03      	lsrs	r3, r0, #12
20000e30:	428b      	cmp	r3, r1
20000e32:	d301      	bcc.n	20000e38 <__divsi3+0x70>
20000e34:	030b      	lsls	r3, r1, #12
20000e36:	1ac0      	subs	r0, r0, r3
20000e38:	4152      	adcs	r2, r2
20000e3a:	0ac3      	lsrs	r3, r0, #11
20000e3c:	428b      	cmp	r3, r1
20000e3e:	d301      	bcc.n	20000e44 <__divsi3+0x7c>
20000e40:	02cb      	lsls	r3, r1, #11
20000e42:	1ac0      	subs	r0, r0, r3
20000e44:	4152      	adcs	r2, r2
20000e46:	0a83      	lsrs	r3, r0, #10
20000e48:	428b      	cmp	r3, r1
20000e4a:	d301      	bcc.n	20000e50 <__divsi3+0x88>
20000e4c:	028b      	lsls	r3, r1, #10
20000e4e:	1ac0      	subs	r0, r0, r3
20000e50:	4152      	adcs	r2, r2
20000e52:	0a43      	lsrs	r3, r0, #9
20000e54:	428b      	cmp	r3, r1
20000e56:	d301      	bcc.n	20000e5c <__divsi3+0x94>
20000e58:	024b      	lsls	r3, r1, #9
20000e5a:	1ac0      	subs	r0, r0, r3
20000e5c:	4152      	adcs	r2, r2
20000e5e:	0a03      	lsrs	r3, r0, #8
20000e60:	428b      	cmp	r3, r1
20000e62:	d301      	bcc.n	20000e68 <__divsi3+0xa0>
20000e64:	020b      	lsls	r3, r1, #8
20000e66:	1ac0      	subs	r0, r0, r3
20000e68:	4152      	adcs	r2, r2
20000e6a:	d2cd      	bcs.n	20000e08 <__divsi3+0x40>
20000e6c:	09c3      	lsrs	r3, r0, #7
20000e6e:	428b      	cmp	r3, r1
20000e70:	d301      	bcc.n	20000e76 <__divsi3+0xae>
20000e72:	01cb      	lsls	r3, r1, #7
20000e74:	1ac0      	subs	r0, r0, r3
20000e76:	4152      	adcs	r2, r2
20000e78:	0983      	lsrs	r3, r0, #6
20000e7a:	428b      	cmp	r3, r1
20000e7c:	d301      	bcc.n	20000e82 <__divsi3+0xba>
20000e7e:	018b      	lsls	r3, r1, #6
20000e80:	1ac0      	subs	r0, r0, r3
20000e82:	4152      	adcs	r2, r2
20000e84:	0943      	lsrs	r3, r0, #5
20000e86:	428b      	cmp	r3, r1
20000e88:	d301      	bcc.n	20000e8e <__divsi3+0xc6>
20000e8a:	014b      	lsls	r3, r1, #5
20000e8c:	1ac0      	subs	r0, r0, r3
20000e8e:	4152      	adcs	r2, r2
20000e90:	0903      	lsrs	r3, r0, #4
20000e92:	428b      	cmp	r3, r1
20000e94:	d301      	bcc.n	20000e9a <__divsi3+0xd2>
20000e96:	010b      	lsls	r3, r1, #4
20000e98:	1ac0      	subs	r0, r0, r3
20000e9a:	4152      	adcs	r2, r2
20000e9c:	08c3      	lsrs	r3, r0, #3
20000e9e:	428b      	cmp	r3, r1
20000ea0:	d301      	bcc.n	20000ea6 <__divsi3+0xde>
20000ea2:	00cb      	lsls	r3, r1, #3
20000ea4:	1ac0      	subs	r0, r0, r3
20000ea6:	4152      	adcs	r2, r2
20000ea8:	0883      	lsrs	r3, r0, #2
20000eaa:	428b      	cmp	r3, r1
20000eac:	d301      	bcc.n	20000eb2 <__divsi3+0xea>
20000eae:	008b      	lsls	r3, r1, #2
20000eb0:	1ac0      	subs	r0, r0, r3
20000eb2:	4152      	adcs	r2, r2
20000eb4:	0843      	lsrs	r3, r0, #1
20000eb6:	428b      	cmp	r3, r1
20000eb8:	d301      	bcc.n	20000ebe <__divsi3+0xf6>
20000eba:	004b      	lsls	r3, r1, #1
20000ebc:	1ac0      	subs	r0, r0, r3
20000ebe:	4152      	adcs	r2, r2
20000ec0:	1a41      	subs	r1, r0, r1
20000ec2:	d200      	bcs.n	20000ec6 <__divsi3+0xfe>
20000ec4:	4601      	mov	r1, r0
20000ec6:	4152      	adcs	r2, r2
20000ec8:	4610      	mov	r0, r2
20000eca:	4770      	bx	lr
20000ecc:	e05d      	b.n	20000f8a <__divsi3+0x1c2>
20000ece:	0fca      	lsrs	r2, r1, #31
20000ed0:	d000      	beq.n	20000ed4 <__divsi3+0x10c>
20000ed2:	4249      	negs	r1, r1
20000ed4:	1003      	asrs	r3, r0, #32
20000ed6:	d300      	bcc.n	20000eda <__divsi3+0x112>
20000ed8:	4240      	negs	r0, r0
20000eda:	4053      	eors	r3, r2
20000edc:	2200      	movs	r2, #0
20000ede:	469c      	mov	ip, r3
20000ee0:	0903      	lsrs	r3, r0, #4
20000ee2:	428b      	cmp	r3, r1
20000ee4:	d32d      	bcc.n	20000f42 <__divsi3+0x17a>
20000ee6:	0a03      	lsrs	r3, r0, #8
20000ee8:	428b      	cmp	r3, r1
20000eea:	d312      	bcc.n	20000f12 <__divsi3+0x14a>
20000eec:	22fc      	movs	r2, #252	; 0xfc
20000eee:	0189      	lsls	r1, r1, #6
20000ef0:	ba12      	rev	r2, r2
20000ef2:	0a03      	lsrs	r3, r0, #8
20000ef4:	428b      	cmp	r3, r1
20000ef6:	d30c      	bcc.n	20000f12 <__divsi3+0x14a>
20000ef8:	0189      	lsls	r1, r1, #6
20000efa:	1192      	asrs	r2, r2, #6
20000efc:	428b      	cmp	r3, r1
20000efe:	d308      	bcc.n	20000f12 <__divsi3+0x14a>
20000f00:	0189      	lsls	r1, r1, #6
20000f02:	1192      	asrs	r2, r2, #6
20000f04:	428b      	cmp	r3, r1
20000f06:	d304      	bcc.n	20000f12 <__divsi3+0x14a>
20000f08:	0189      	lsls	r1, r1, #6
20000f0a:	d03a      	beq.n	20000f82 <__divsi3+0x1ba>
20000f0c:	1192      	asrs	r2, r2, #6
20000f0e:	e000      	b.n	20000f12 <__divsi3+0x14a>
20000f10:	0989      	lsrs	r1, r1, #6
20000f12:	09c3      	lsrs	r3, r0, #7
20000f14:	428b      	cmp	r3, r1
20000f16:	d301      	bcc.n	20000f1c <__divsi3+0x154>
20000f18:	01cb      	lsls	r3, r1, #7
20000f1a:	1ac0      	subs	r0, r0, r3
20000f1c:	4152      	adcs	r2, r2
20000f1e:	0983      	lsrs	r3, r0, #6
20000f20:	428b      	cmp	r3, r1
20000f22:	d301      	bcc.n	20000f28 <__divsi3+0x160>
20000f24:	018b      	lsls	r3, r1, #6
20000f26:	1ac0      	subs	r0, r0, r3
20000f28:	4152      	adcs	r2, r2
20000f2a:	0943      	lsrs	r3, r0, #5
20000f2c:	428b      	cmp	r3, r1
20000f2e:	d301      	bcc.n	20000f34 <__divsi3+0x16c>
20000f30:	014b      	lsls	r3, r1, #5
20000f32:	1ac0      	subs	r0, r0, r3
20000f34:	4152      	adcs	r2, r2
20000f36:	0903      	lsrs	r3, r0, #4
20000f38:	428b      	cmp	r3, r1
20000f3a:	d301      	bcc.n	20000f40 <__divsi3+0x178>
20000f3c:	010b      	lsls	r3, r1, #4
20000f3e:	1ac0      	subs	r0, r0, r3
20000f40:	4152      	adcs	r2, r2
20000f42:	08c3      	lsrs	r3, r0, #3
20000f44:	428b      	cmp	r3, r1
20000f46:	d301      	bcc.n	20000f4c <__divsi3+0x184>
20000f48:	00cb      	lsls	r3, r1, #3
20000f4a:	1ac0      	subs	r0, r0, r3
20000f4c:	4152      	adcs	r2, r2
20000f4e:	0883      	lsrs	r3, r0, #2
20000f50:	428b      	cmp	r3, r1
20000f52:	d301      	bcc.n	20000f58 <__divsi3+0x190>
20000f54:	008b      	lsls	r3, r1, #2
20000f56:	1ac0      	subs	r0, r0, r3
20000f58:	4152      	adcs	r2, r2
20000f5a:	d2d9      	bcs.n	20000f10 <__divsi3+0x148>
20000f5c:	0843      	lsrs	r3, r0, #1
20000f5e:	428b      	cmp	r3, r1
20000f60:	d301      	bcc.n	20000f66 <__divsi3+0x19e>
20000f62:	004b      	lsls	r3, r1, #1
20000f64:	1ac0      	subs	r0, r0, r3
20000f66:	4152      	adcs	r2, r2
20000f68:	1a41      	subs	r1, r0, r1
20000f6a:	d200      	bcs.n	20000f6e <__divsi3+0x1a6>
20000f6c:	4601      	mov	r1, r0
20000f6e:	4663      	mov	r3, ip
20000f70:	4152      	adcs	r2, r2
20000f72:	105b      	asrs	r3, r3, #1
20000f74:	4610      	mov	r0, r2
20000f76:	d301      	bcc.n	20000f7c <__divsi3+0x1b4>
20000f78:	4240      	negs	r0, r0
20000f7a:	2b00      	cmp	r3, #0
20000f7c:	d500      	bpl.n	20000f80 <__divsi3+0x1b8>
20000f7e:	4249      	negs	r1, r1
20000f80:	4770      	bx	lr
20000f82:	4663      	mov	r3, ip
20000f84:	105b      	asrs	r3, r3, #1
20000f86:	d300      	bcc.n	20000f8a <__divsi3+0x1c2>
20000f88:	4240      	negs	r0, r0
20000f8a:	b501      	push	{r0, lr}
20000f8c:	2000      	movs	r0, #0
20000f8e:	f000 f805 	bl	20000f9c <__aeabi_idiv0>
20000f92:	bd02      	pop	{r1, pc}

20000f94 <__aeabi_idivmod>:
20000f94:	2900      	cmp	r1, #0
20000f96:	d0f8      	beq.n	20000f8a <__divsi3+0x1c2>
20000f98:	e716      	b.n	20000dc8 <__divsi3>
20000f9a:	4770      	bx	lr

20000f9c <__aeabi_idiv0>:
20000f9c:	4770      	bx	lr
20000f9e:	46c0      	nop			; (mov r8, r8)

20000fa0 <snake_geometry>:
20000fa0:	00000010 	andeq	r0, r0, r0, lsl r0
20000fa4:	00000001 	andeq	r0, r0, r1
20000fa8:	00000001 	andeq	r0, r0, r1
20000fac:	00010000 	andeq	r0, r1, r0
20000fb0:	00030002 	andeq	r0, r3, r2
20000fb4:	01010100 	mrseq	r0, (UNDEF: 17)
20000fb8:	01030102 	tsteq	r3, r2, lsl #2
20000fbc:	02010200 	andeq	r0, r1, #0, 4
20000fc0:	02030202 	andeq	r0, r3, #536870912	; 0x20000000
20000fc4:	03010300 	movweq	r0, #4864	; 0x1300
20000fc8:	03030302 	movweq	r0, #13058	; 0x3302
	...

20003fac <snake>:
20003fac:	20000fa0 	andcs	r0, r0, r0, lsr #31
20003fb0:	ffffffff 			; <UNDEFINED> instruction: 0xffffffff
20003fb4:	00000000 	andeq	r0, r0, r0
20003fb8:	00000018 	andeq	r0, r0, r8, lsl r0
20003fbc:	00000008 	andeq	r0, r0, r8
20003fc0:	2000043d 	andcs	r0, r0, sp, lsr r4
20003fc4:	200004bf 			; <UNDEFINED> instruction: 0x200004bf
20003fc8:	20000561 	andcs	r0, r0, r1, ror #10
20003fcc:	20000541 	andcs	r0, r0, r1, asr #10

20003fd0 <apple_geometry>:
20003fd0:	0000000c 	andeq	r0, r0, ip
20003fd4:	00000001 	andeq	r0, r0, r1
20003fd8:	00000001 	andeq	r0, r0, r1
20003fdc:	02000100 	andeq	r0, r0, #0, 2
20003fe0:	01010001 	tsteq	r1, r1
20003fe4:	03010201 	movweq	r0, #4609	; 0x1201
20003fe8:	01020002 	tsteq	r2, r2
20003fec:	03020202 	movweq	r0, #8706	; 0x2202
20003ff0:	02030103 	andeq	r0, r3, #-1073741824	; 0xc0000000
	...

20006fdc <apple>:
20006fdc:	20003fd0 	ldrdcs	r3, [r0], -r0
	...
20006fe8:	00000008 	andeq	r0, r0, r8
20006fec:	00000008 	andeq	r0, r0, r8
20006ff0:	2000043d 	andcs	r0, r0, sp, lsr r4
20006ff4:	200004bf 			; <UNDEFINED> instruction: 0x200004bf
20006ff8:	2000058d 	andcs	r0, r0, sp, lsl #11
20006ffc:	20000541 	andcs	r0, r0, r1, asr #10

20007000 <tail_geometry>:
20007000:	0000000c 	andeq	r0, r0, ip
20007004:	00000001 	andeq	r0, r0, r1
20007008:	00000001 	andeq	r0, r0, r1
2000700c:	00010000 	andeq	r0, r1, r0
20007010:	00030002 	andeq	r0, r3, r2
20007014:	01030100 	mrseq	r0, (UNDEF: 19)
20007018:	02030200 	andeq	r0, r3, #0, 4
2000701c:	03010300 	movweq	r0, #4864	; 0x1300
20007020:	03030302 	movweq	r0, #13058	; 0x3302
	...
2000a010:	726f6353 	rsbvc	r6, pc, #1275068417	; 0x4c000001
2000a014:	00203a65 	eoreq	r3, r0, r5, ror #20
2000a018:	656d6147 	strbvs	r6, [sp, #-327]!	; 0xfffffeb9
2000a01c:	65766f20 	ldrbvs	r6, [r6, #-3872]!	; 0xfffff0e0
2000a020:	00202172 	eoreq	r2, r0, r2, ror r1
2000a024:	0a030201 	beq	200ca830 <points+0xc07fc>
2000a028:	0b060504 	bleq	2018b440 <points+0x18140c>
2000a02c:	0c090807 	stceq	8, cr0, [r9], {7}
2000a030:	0d0f000e 	stceq	0, cr0, [pc, #-56]	; 2000a000 <tail_geometry+0x3000>

2000a034 <points>:
2000a034:	00000000 	andeq	r0, r0, r0

Disassembly of section .debug_info:

00000000 <.debug_info>:
   0:	0000010d 	andeq	r0, r0, sp, lsl #2
   4:	00000004 	andeq	r0, r0, r4
   8:	01040000 	mrseq	r0, (UNDEF: 4)
   c:	000000c8 	andeq	r0, r0, r8, asr #1
  10:	0000400c 	andeq	r4, r0, ip
  14:	00000000 	andeq	r0, r0, r0
  18:	00001000 	andeq	r1, r0, r0
  1c:	00010420 	andeq	r0, r1, r0, lsr #8
  20:	00000000 	andeq	r0, r0, r0
  24:	07040200 	streq	r0, [r4, -r0, lsl #4]
  28:	000000a1 	andeq	r0, r0, r1, lsr #1
  2c:	9b070202 	blls	1c083c <startup-0x1fe3f7c4>
  30:	02000000 	andeq	r0, r0, #0
  34:	008d0801 	addeq	r0, sp, r1, lsl #16
  38:	04030000 	streq	r0, [r3], #-0
  3c:	746e6905 	strbtvc	r6, [lr], #-2309	; 0xfffff6fb
  40:	00ae0400 	adceq	r0, lr, r0, lsl #8
  44:	28010000 	stmdacs	r1, {}	; <UNPREDICTABLE>
  48:	00003a06 	andeq	r3, r0, r6, lsl #20
  4c:	0000c600 	andeq	ip, r0, r0, lsl #12
  50:	00004e20 	andeq	r4, r0, r0, lsr #28
  54:	969c0100 	ldrls	r0, [ip], r0, lsl #2
  58:	05000000 	streq	r0, [r0, #-0]
  5c:	006e696d 	rsbeq	r6, lr, sp, ror #18
  60:	3a182801 	bcc	60a06c <startup-0x1f9f5f94>
  64:	02000000 	andeq	r0, r0, #0
  68:	6d056c91 	stcvs	12, cr6, [r5, #-580]	; 0xfffffdbc
  6c:	01007861 	tsteq	r0, r1, ror #16
  70:	003a2128 	eorseq	r2, sl, r8, lsr #2
  74:	91020000 	mrsls	r0, (UNDEF: 2)
  78:	00390668 	eorseq	r0, r9, r8, ror #12
  7c:	2a010000 	bcs	40084 <startup-0x1ffbff7c>
  80:	00009608 	andeq	r9, r0, r8, lsl #12
  84:	76910200 	ldrvc	r0, [r1], r0, lsl #4
  88:	01006307 	tsteq	r0, r7, lsl #6
  8c:	0033102b 	eorseq	r1, r3, fp, lsr #32
  90:	91020000 	mrsls	r0, (UNDEF: 2)
  94:	02020075 	andeq	r0, r2, #117	; 0x75
  98:	00015005 	andeq	r5, r1, r5
  9c:	01440800 	cmpeq	r4, r0, lsl #16
  a0:	1d010000 	stcne	0, cr0, [r1, #-0]
  a4:	0000a006 	andeq	sl, r0, r6
  a8:	00002620 	andeq	r2, r0, r0, lsr #12
  ac:	c29c0100 	addsgt	r0, ip, #0, 2
  b0:	05000000 	streq	r0, [r0, #-0]
  b4:	0100736d 	tsteq	r0, sp, ror #6
  b8:	00251f1d 	eoreq	r1, r5, sp, lsl pc
  bc:	91020000 	mrsls	r0, (UNDEF: 2)
  c0:	5a080074 	bpl	200298 <startup-0x1fdffd68>
  c4:	01000001 	tsteq	r0, r1
  c8:	00540610 	subseq	r0, r4, r0, lsl r6
  cc:	004c2000 	subeq	r2, ip, r0
  d0:	9c010000 	stcls	0, cr0, [r1], {-0}
  d4:	000000fe 	strdeq	r0, [r0], -lr
  d8:	00737505 	rsbseq	r7, r3, r5, lsl #10
  dc:	251f1001 	ldrcs	r1, [pc, #-1]	; e3 <startup-0x1fffff1d>
  e0:	02000000 	andeq	r0, r0, #0
  e4:	74096c91 	strvc	r6, [r9], #-3217	; 0xfffff36f
  e8:	16200000 	strtne	r0, [r0], -r0
  ec:	07000000 	streq	r0, [r0, -r0]
  f0:	18010069 	stmdane	r1, {r0, r3, r5, r6}
  f4:	00003a0b 	andeq	r3, r0, fp, lsl #20
  f8:	74910200 	ldrvc	r0, [r1], #512	; 0x200
  fc:	bc0a0000 	stclt	0, cr0, [sl], {-0}
 100:	01000000 	mrseq	r0, (UNDEF: 0)
 104:	00100605 	andseq	r0, r0, r5, lsl #12
 108:	00442000 	subeq	r2, r4, r0
 10c:	9c010000 	stcls	0, cr0, [r1], {-0}
 110:	00036400 	andeq	r6, r3, r0, lsl #8
 114:	ba000400 	blt	111c <startup-0x1fffeee4>
 118:	04000000 	streq	r0, [r0], #-0
 11c:	0000c801 	andeq	ip, r0, r1, lsl #16
 120:	02b20c00 	adcseq	r0, r2, #0, 24
 124:	00000000 	andeq	r0, r0, r0
 128:	01140000 	tsteq	r4, r0
 12c:	03102000 	tsteq	r0, #0
 130:	01190000 	tsteq	r9, r0
 134:	28020000 	stmdacs	r2, {}	; <UNPREDICTABLE>
 138:	ff122002 			; <UNDEFINED> instruction: 0xff122002
 13c:	03000000 	movweq	r0, #0
 140:	000002fb 	strdeq	r0, [r0], -fp
 144:	040e2102 	streq	r2, [lr], #-258	; 0xfffffefe
 148:	00000001 	andeq	r0, r0, r1
 14c:	0001a003 	andeq	sl, r1, r3
 150:	14220200 	strtne	r0, [r2], #-512	; 0xfffffe00
 154:	0000010b 	andeq	r0, r0, fp, lsl #2
 158:	021c0304 	andseq	r0, ip, #4, 6	; 0x10000000
 15c:	23020000 	movwcs	r0, #8192	; 0x2000
 160:	00010b14 	andeq	r0, r1, r4, lsl fp
 164:	72030600 	andvc	r0, r3, #0, 12
 168:	02000002 	andeq	r0, r0, #2
 16c:	01040e24 	tsteq	r4, r4, lsr #28
 170:	03080000 	movweq	r0, #32768	; 0x8000
 174:	00000216 	andeq	r0, r0, r6, lsl r2
 178:	040e2502 	streq	r2, [lr], #-1282	; 0xfffffafe
 17c:	0c000001 	stceq	0, cr0, [r0], {1}
 180:	00028603 	andeq	r8, r2, r3, lsl #12
 184:	0f260200 	svceq	0x00260200
 188:	00000112 	andeq	r0, r0, r2, lsl r1
 18c:	026a0310 	rsbeq	r0, sl, #16, 6	; 0x40000000
 190:	27020000 	strcs	r0, [r2, -r0]
 194:	0001120f 	andeq	r1, r1, pc, lsl #4
 198:	26031100 	strcs	r1, [r3], -r0, lsl #2
 19c:	02000002 	andeq	r0, r0, #2
 1a0:	010b1428 	tsteq	fp, r8, lsr #8
 1a4:	03120000 	tsteq	r2, #0
 1a8:	00000244 	andeq	r0, r0, r4, asr #4
 1ac:	120f2902 	andne	r2, pc, #32768	; 0x8000
 1b0:	14000001 	strne	r0, [r0], #-1
 1b4:	0001a703 	andeq	sl, r1, r3, lsl #14
 1b8:	0f2a0200 	svceq	0x002a0200
 1bc:	00000112 	andeq	r0, r0, r2, lsl r1
 1c0:	02300315 	eorseq	r0, r0, #1409286144	; 0x54000000
 1c4:	2b020000 	blcs	801cc <startup-0x1ff7fe34>
 1c8:	00010b14 	andeq	r0, r1, r4, lsl fp
 1cc:	90031600 	andls	r1, r3, r0, lsl #12
 1d0:	02000001 	andeq	r0, r0, #1
 1d4:	01040e2c 	tsteq	r4, ip, lsr #28
 1d8:	03180000 	tsteq	r8, #0
 1dc:	00000301 	andeq	r0, r0, r1, lsl #6
 1e0:	0b142d02 	bleq	50b5f0 <startup-0x1faf4a10>
 1e4:	1c000001 	stcne	0, cr0, [r0], {1}
 1e8:	00023a03 	andeq	r3, r2, r3, lsl #20
 1ec:	142e0200 	strtne	r0, [lr], #-512	; 0xfffffe00
 1f0:	0000010b 	andeq	r0, r0, fp, lsl #2
 1f4:	01d2031e 	bicseq	r0, r2, lr, lsl r3
 1f8:	2f020000 	svccs	0x00020000
 1fc:	0001040e 	andeq	r0, r1, lr, lsl #8
 200:	cd032000 	stcgt	0, cr2, [r3, #-0]
 204:	02000001 	andeq	r0, r0, #1
 208:	01040e30 	tsteq	r4, r0, lsr lr
 20c:	00240000 	eoreq	r0, r4, r0
 210:	00002504 	andeq	r2, r0, r4, lsl #10
 214:	07040500 	streq	r0, [r4, -r0, lsl #10]
 218:	000000a1 	andeq	r0, r0, r1, lsr #1
 21c:	9b070205 	blls	1c0a38 <startup-0x1fe3f5c8>
 220:	05000000 	streq	r0, [r0, #-0]
 224:	008d0801 	addeq	r0, sp, r1, lsl #16
 228:	c7060000 	strgt	r0, [r6, -r0]
 22c:	02000001 	andeq	r0, r0, #1
 230:	01250a31 			; <UNDEFINED> instruction: 0x01250a31
 234:	04070000 	streq	r0, [r7], #-0
 238:	000000ff 	strdeq	r0, [r0], -pc	; <UNPREDICTABLE>
 23c:	69050408 	stmdbvs	r5, {r3, sl}
 240:	0900746e 	stmdbeq	r0, {r1, r2, r3, r5, r6, sl, ip, sp, lr}
 244:	00000184 	andeq	r0, r0, r4, lsl #3
 248:	2b057801 	blcs	15e254 <startup-0x1fea1dac>
 24c:	c4000001 	strgt	r0, [r0], #-1
 250:	60200003 	eorvs	r0, r0, r3
 254:	01000000 	mrseq	r0, (UNDEF: 0)
 258:	0001789c 	muleq	r1, ip, r8
 25c:	01c10a00 	biceq	r0, r1, r0, lsl #20
 260:	78010000 	stmdavc	r1, {}	; <UNPREDICTABLE>
 264:	00017816 	andeq	r7, r1, r6, lsl r8
 268:	6c910200 	lfmvs	f0, 4, [r1], {0}
 26c:	0001d70a 	andeq	sp, r1, sl, lsl #14
 270:	24780100 	ldrbtcs	r0, [r8], #-256	; 0xffffff00
 274:	00000178 	andeq	r0, r0, r8, ror r1
 278:	0b689102 	bleq	1a24688 <startup-0x1e5db978>
 27c:	7a010073 	bvc	40450 <startup-0x1ffbfbb0>
 280:	00017808 	andeq	r7, r1, r8, lsl #16
 284:	74910200 	ldrvc	r0, [r1], #512	; 0x200
 288:	7e040700 	cdpvc	7, 0, cr0, cr4, cr0, {0}
 28c:	05000001 	streq	r0, [r0, #-1]
 290:	00960801 	addseq	r0, r6, r1, lsl #16
 294:	7a0c0000 	bvc	30029c <startup-0x1fcffd64>
 298:	01000002 	tsteq	r0, r2
 29c:	0378066f 	cmneq	r8, #116391936	; 0x6f00000
 2a0:	004c2000 	subeq	r2, ip, r0
 2a4:	9c010000 	stcls	0, cr0, [r1], {-0}
 2a8:	000001c9 	andeq	r0, r0, r9, asr #3
 2ac:	776f720d 	strbvc	r7, [pc, -sp, lsl #4]!
 2b0:	206f0100 	rsbcs	r0, pc, r0, lsl #2
 2b4:	00000112 	andeq	r0, r0, r2, lsl r1
 2b8:	0a6f9102 	beq	1be46c8 <startup-0x1e41b938>
 2bc:	0000017d 	andeq	r0, r0, sp, ror r1
 2c0:	12336f01 	eorsne	r6, r3, #1, 30
 2c4:	02000001 	andeq	r0, r0, #1
 2c8:	610b6e91 			; <UNDEFINED> instruction: 0x610b6e91
 2cc:	01007264 	tsteq	r0, r4, ror #4
 2d0:	017e0771 	cmneq	lr, r1, ror r7
 2d4:	91020000 	mrsls	r0, (UNDEF: 2)
 2d8:	060c0077 			; <UNDEFINED> instruction: 0x060c0077
 2dc:	01000003 	tsteq	r0, r3
 2e0:	033c0667 	teqeq	ip, #108003328	; 0x6700000
 2e4:	003c2000 	eorseq	r2, ip, r0
 2e8:	9c010000 	stcls	0, cr0, [r1], {-0}
 2ec:	000001ed 	andeq	r0, r0, sp, ror #3
 2f0:	0100630d 	tsteq	r0, sp, lsl #6
 2f4:	017e1c67 	cmneq	lr, r7, ror #24
 2f8:	91020000 	mrsls	r0, (UNDEF: 2)
 2fc:	950e0077 	strls	r0, [lr, #-119]	; 0xffffff89
 300:	01000001 	tsteq	r0, r1
 304:	03020658 	movweq	r0, #9816	; 0x2658
 308:	003a2000 	eorseq	r2, sl, r0
 30c:	9c010000 	stcls	0, cr0, [r1], {-0}
 310:	00025c0c 	andeq	r5, r2, ip, lsl #24
 314:	06510100 	ldrbeq	r0, [r1], -r0, lsl #2
 318:	200002cc 	andcs	r0, r0, ip, asr #5
 31c:	00000036 	andeq	r0, r0, r6, lsr r0
 320:	02259c01 	eoreq	r9, r5, #256	; 0x100
 324:	620a0000 	andvs	r0, sl, #0
 328:	01000002 	tsteq	r0, r2
 32c:	01122351 	tsteq	r2, r1, asr r3
 330:	91020000 	mrsls	r0, (UNDEF: 2)
 334:	a2090077 	andge	r0, r9, #119	; 0x77
 338:	01000002 	tsteq	r0, r2
 33c:	01120f47 	tsteq	r2, r7, asr #30
 340:	02840000 	addeq	r0, r4, #0
 344:	00482000 	subeq	r2, r8, r0
 348:	9c010000 	stcls	0, cr0, [r1], {-0}
 34c:	0000024d 	andeq	r0, r0, sp, asr #4
 350:	0100630b 	tsteq	r0, fp, lsl #6
 354:	017e074c 	cmneq	lr, ip, asr #14
 358:	91020000 	mrsls	r0, (UNDEF: 2)
 35c:	af09006f 	svcge	0x0009006f
 360:	01000001 	tsteq	r0, r1
 364:	01120f3b 	tsteq	r2, fp, lsr pc
 368:	02440000 	subeq	r0, r4, #0
 36c:	00402000 	subeq	r2, r0, r0
 370:	9c010000 	stcls	0, cr0, [r1], {-0}
 374:	00000275 	andeq	r0, r0, r5, ror r2
 378:	0100630b 	tsteq	r0, fp, lsl #6
 37c:	017e073d 	cmneq	lr, sp, lsr r7
 380:	91020000 	mrsls	r0, (UNDEF: 2)
 384:	4b0c006f 	blmi	300548 <startup-0x1fcffab8>
 388:	01000002 	tsteq	r0, r2
 38c:	021a0634 	andseq	r0, sl, #52, 12	; 0x3400000
 390:	002a2000 	eoreq	r2, sl, r0
 394:	9c010000 	stcls	0, cr0, [r1], {-0}
 398:	00000299 	muleq	r0, r9, r2
 39c:	0100630d 	tsteq	r0, sp, lsl #6
 3a0:	01122634 	tsteq	r2, r4, lsr r6
 3a4:	91020000 	mrsls	r0, (UNDEF: 2)
 3a8:	060c0077 			; <UNDEFINED> instruction: 0x060c0077
 3ac:	01000002 	tsteq	r0, r2
 3b0:	01f0062d 	mvnseq	r0, sp, lsr #12
 3b4:	002a2000 	eoreq	r2, sl, r0
 3b8:	9c010000 	stcls	0, cr0, [r1], {-0}
 3bc:	000002bd 			; <UNDEFINED> instruction: 0x000002bd
 3c0:	0100630d 	tsteq	r0, sp, lsl #6
 3c4:	0112252d 	tsteq	r2, sp, lsr #10
 3c8:	91020000 	mrsls	r0, (UNDEF: 2)
 3cc:	dd090077 	stcle	0, cr0, [r9, #-476]	; 0xfffffe24
 3d0:	01000001 	tsteq	r0, r1
 3d4:	017e0622 	cmneq	lr, r2, lsr #12
 3d8:	01c40000 	biceq	r0, r4, r0
 3dc:	002c2000 	eoreq	r2, ip, r0
 3e0:	9c010000 	stcls	0, cr0, [r1], {-0}
 3e4:	000002e5 	andeq	r0, r0, r5, ror #5
 3e8:	0100630b 	tsteq	r0, fp, lsl #6
 3ec:	017e0724 	cmneq	lr, r4, lsr #14
 3f0:	91020000 	mrsls	r0, (UNDEF: 2)
 3f4:	660c0077 			; <UNDEFINED> instruction: 0x660c0077
 3f8:	01000001 	tsteq	r0, r1
 3fc:	01940618 	orrseq	r0, r4, r8, lsl r6
 400:	00302000 	eorseq	r2, r0, r0
 404:	9c010000 	stcls	0, cr0, [r1], {-0}
 408:	00000309 	andeq	r0, r0, r9, lsl #6
 40c:	0100630d 	tsteq	r0, sp, lsl #6
 410:	01122d18 	tsteq	r2, r8, lsl sp
 414:	91020000 	mrsls	r0, (UNDEF: 2)
 418:	8d0f0077 	stchi	0, cr0, [pc, #-476]	; 244 <startup-0x1ffffdbc>
 41c:	01000002 	tsteq	r0, r2
 420:	014c0610 	cmpeq	ip, r0, lsl r6
 424:	00482000 	subeq	r2, r8, r0
 428:	9c010000 	stcls	0, cr0, [r1], {-0}
 42c:	0000033a 	andeq	r0, r0, sl, lsr r3
 430:	0100780d 	tsteq	r0, sp, lsl #16
 434:	017e2210 	cmneq	lr, r0, lsl r2
 438:	91020000 	mrsls	r0, (UNDEF: 2)
 43c:	00630b6f 	rsbeq	r0, r3, pc, ror #22
 440:	7e071201 	cdpvc	2, 0, cr1, cr7, cr1, {0}
 444:	02000001 	andeq	r0, r0, #1
 448:	10007791 	mulne	r0, r1, r7
 44c:	000001f3 	strdeq	r0, [r0], -r3
 450:	14060901 	strne	r0, [r6], #-2305	; 0xfffff6ff
 454:	38200001 	stmdacc	r0!, {r0}
 458:	01000000 	mrseq	r0, (UNDEF: 0)
 45c:	00780d9c 			; <UNDEFINED> instruction: 0x00780d9c
 460:	7e200901 	vmulvc.f16	s0, s0, s2	; <UNPREDICTABLE>
 464:	02000001 	andeq	r0, r0, #1
 468:	630b6f91 	movwvs	r6, #49041	; 0xbf91
 46c:	070b0100 	streq	r0, [fp, -r0, lsl #2]
 470:	0000017e 	andeq	r0, r0, lr, ror r1
 474:	00779102 	rsbseq	r9, r7, r2, lsl #2
 478:	00061200 	andeq	r1, r6, r0, lsl #4
 47c:	e0000400 	and	r0, r0, r0, lsl #8
 480:	04000001 	streq	r0, [r0], #-1
 484:	0000c801 	andeq	ip, r0, r1, lsl #16
 488:	03f20c00 	mvnseq	r0, #0, 24
	...
 498:	02c60000 	sbceq	r0, r6, #0
 49c:	04020000 	streq	r0, [r2], #-0
 4a0:	0000a107 	andeq	sl, r0, r7, lsl #2
 4a4:	07020200 	streq	r0, [r2, -r0, lsl #4]
 4a8:	0000009b 	muleq	r0, fp, r0
 4ac:	8d080102 	stfhis	f0, [r8, #-8]
 4b0:	03000000 	movweq	r0, #0
 4b4:	09340202 	ldmdbeq	r4!, {r1, r9}
 4b8:	0000005a 	andeq	r0, r0, sl, asr r0
 4bc:	02007804 	andeq	r7, r0, #4, 16	; 0x40000
 4c0:	00331036 	eorseq	r1, r3, r6, lsr r0
 4c4:	04000000 	streq	r0, [r0], #-0
 4c8:	36020079 			; <UNDEFINED> instruction: 0x36020079
 4cc:	00003313 	andeq	r3, r0, r3, lsl r3
 4d0:	05000100 	streq	r0, [r0, #-256]	; 0xffffff00
 4d4:	00000362 	andeq	r0, r0, r2, ror #6
 4d8:	3a033702 	bcc	ce0e8 <startup-0x1ff31f18>
 4dc:	06000000 	streq	r0, [r0], -r0
 4e0:	3b02300c 	blcc	8c518 <startup-0x1ff73ae8>
 4e4:	0000a409 	andeq	sl, r0, r9, lsl #8
 4e8:	04c20700 	strbeq	r0, [r2], #1792	; 0x700
 4ec:	3d020000 	stccc	0, cr0, [r2, #-0]
 4f0:	0000a406 	andeq	sl, r0, r6, lsl #8
 4f4:	d9070000 	stmdble	r7, {}	; <UNPREDICTABLE>
 4f8:	02000003 	andeq	r0, r0, #3
 4fc:	00a4063e 	adceq	r0, r4, lr, lsr r6
 500:	07040000 	streq	r0, [r4, -r0]
 504:	000003df 	ldrdeq	r0, [r0], -pc	; <UNPREDICTABLE>
 508:	a4063f02 	strge	r3, [r6], #-3842	; 0xfffff0fe
 50c:	08000000 	stmdaeq	r0, {}	; <UNPREDICTABLE>
 510:	00787004 	rsbseq	r7, r8, r4
 514:	ab084002 	blge	210524 <startup-0x1fdefadc>
 518:	0c000000 	stceq	0, cr0, [r0], {-0}
 51c:	05040800 	streq	r0, [r4, #-2048]	; 0xfffff800
 520:	00746e69 	rsbseq	r6, r4, r9, ror #28
 524:	00005a09 	andeq	r5, r0, r9, lsl #20
 528:	0000bc00 	andeq	fp, r0, r0, lsl #24
 52c:	00250a00 	eoreq	r0, r5, r0, lsl #20
 530:	17ff0000 	ldrbne	r0, [pc, r0]!
 534:	03180500 	tsteq	r8, #0, 10
 538:	41020000 	mrsmi	r0, (UNDEF: 2)
 53c:	00006603 	andeq	r6, r0, r3, lsl #12
 540:	03170500 	tsteq	r7, #0, 10
 544:	41020000 	mrsmi	r0, (UNDEF: 2)
 548:	0000d40e 	andeq	sp, r0, lr, lsl #8
 54c:	66040b00 	strvs	r0, [r4], -r0, lsl #22
 550:	0c000000 	stceq	0, cr0, [r0], {-0}
 554:	000004b6 			; <UNDEFINED> instruction: 0x000004b6
 558:	10430224 	subne	r0, r3, r4, lsr #4
 55c:	0000015d 	andeq	r0, r0, sp, asr r1
 560:	6f656704 	svcvs	0x00656704
 564:	0c450200 	sfmeq	f0, 2, [r5], {-0}
 568:	000000c8 	andeq	r0, r0, r8, asr #1
 56c:	033d0700 	teqeq	sp, #0, 14
 570:	46020000 	strmi	r0, [r2], -r0
 574:	0000a406 	andeq	sl, r0, r6, lsl #8
 578:	42070400 	andmi	r0, r7, #0, 8
 57c:	02000003 	andeq	r0, r0, #3
 580:	00a40c46 	adceq	r0, r4, r6, asr #24
 584:	07080000 	streq	r0, [r8, -r0]
 588:	00000379 	andeq	r0, r0, r9, ror r3
 58c:	a4064702 	strge	r4, [r6], #-1794	; 0xfffff8fe
 590:	0c000000 	stceq	0, cr0, [r0], {-0}
 594:	00037e07 	andeq	r7, r3, r7, lsl #28
 598:	0c470200 	sfmeq	f0, 2, [r7], {-0}
 59c:	000000a4 	andeq	r0, r0, r4, lsr #1
 5a0:	03ed0710 	mvneq	r0, #16, 14	; 0x400000
 5a4:	48020000 	stmdami	r2, {}	; <UNPREDICTABLE>
 5a8:	00016e0a 	andeq	r6, r1, sl, lsl #28
 5ac:	da071400 	ble	1c55b4 <startup-0x1fe3aa4c>
 5b0:	02000004 	andeq	r0, r0, #4
 5b4:	016e0a49 	cmneq	lr, r9, asr #20
 5b8:	07180000 	ldreq	r0, [r8, -r0]
 5bc:	00000338 	andeq	r0, r0, r8, lsr r3
 5c0:	6e0a4a02 	vmlavs.f32	s8, s20, s4
 5c4:	1c000001 	stcne	0, cr0, [r0], {1}
 5c8:	00036f07 	andeq	r6, r3, r7, lsl #30
 5cc:	0a4b0200 	beq	12c0dd4 <startup-0x1ed3f22c>
 5d0:	00000189 	andeq	r0, r0, r9, lsl #3
 5d4:	680d0020 	stmdavs	sp, {r5}
 5d8:	0e000001 	cdpeq	0, 0, cr0, cr0, cr1, {0}
 5dc:	00000168 	andeq	r0, r0, r8, ror #2
 5e0:	da040b00 	ble	1031e8 <startup-0x1fefce18>
 5e4:	0b000000 	bleq	5ec <startup-0x1ffffa14>
 5e8:	00015d04 	andeq	r5, r1, r4, lsl #26
 5ec:	01890d00 	orreq	r0, r9, r0, lsl #26
 5f0:	680e0000 	stmdavs	lr, {}	; <UNPREDICTABLE>
 5f4:	0e000001 	cdpeq	0, 0, cr0, cr0, cr1, {0}
 5f8:	000000a4 	andeq	r0, r0, r4, lsr #1
 5fc:	0000a40e 	andeq	sl, r0, lr, lsl #8
 600:	040b0000 	streq	r0, [fp], #-0
 604:	00000174 	andeq	r0, r0, r4, ror r1
 608:	0004e105 	andeq	lr, r4, r5, lsl #2
 60c:	034c0200 	movteq	r0, #49664	; 0xc200
 610:	000000da 	ldrdeq	r0, [r0], -sl
 614:	0004e005 	andeq	lr, r4, r5
 618:	0c4c0200 	sfmeq	f0, 2, [ip], {-0}
 61c:	00000168 	andeq	r0, r0, r8, ror #2
 620:	0004c50f 	andeq	ip, r4, pc, lsl #10
 624:	0e2d0100 	sufeqe	f0, f5, f0
 628:	00000025 	andeq	r0, r0, r5, lsr #32
 62c:	a0340305 	eorsge	r0, r4, r5, lsl #6
 630:	a70f2000 	strge	r2, [pc, -r0]
 634:	01000004 	tsteq	r0, r4
 638:	00bc0a62 	adcseq	r0, ip, r2, ror #20
 63c:	03050000 	movweq	r0, #20480	; 0x5000
 640:	20000fa0 	andcs	r0, r0, r0, lsr #31
 644:	00003310 	andeq	r3, r0, r0, lsl r3
 648:	0f700100 	svceq	0x00700100
 64c:	0000018f 	andeq	r0, r0, pc, lsl #3
 650:	3fac0305 	svccc	0x00ac0305
 654:	8b0f2000 	blhi	3c865c <startup-0x1fc379a4>
 658:	01000004 	tsteq	r0, r4
 65c:	00bc0a7c 	adcseq	r0, ip, ip, ror sl
 660:	03050000 	movweq	r0, #20480	; 0x5000
 664:	20003fd0 	ldrdcs	r3, [r0], -r0
 668:	00032610 	andeq	r2, r3, r0, lsl r6
 66c:	0f860100 	svceq	0x00860100
 670:	0000018f 	andeq	r0, r0, pc, lsl #3
 674:	6fdc0305 	svcvs	0x00dc0305
 678:	c20f2000 	andgt	r2, pc, #0
 67c:	01000003 	tsteq	r0, r3
 680:	00bc0a92 	umlalseq	r0, ip, r2, sl
 684:	03050000 	movweq	r0, #20480	; 0x5000
 688:	20007000 	andcs	r7, r0, r0
 68c:	0003a411 	andeq	sl, r3, r1, lsl r4
 690:	06dc0100 	ldrbeq	r0, [ip], r0, lsl #2
 694:	200007ba 			; <UNDEFINED> instruction: 0x200007ba
 698:	00000332 	andeq	r0, r0, r2, lsr r3
 69c:	029d9c01 	addseq	r9, sp, #256	; 0x100
 6a0:	68100000 	ldmdavs	r0, {}	; <UNPREDICTABLE>
 6a4:	01000003 	tsteq	r0, r3
 6a8:	019b0adf 			; <UNDEFINED> instruction: 0x019b0adf
 6ac:	91020000 	mrsls	r0, (UNDEF: 2)
 6b0:	04e8105c 	strbteq	r1, [r8], #92	; 0x5c
 6b4:	e0010000 	and	r0, r1, r0
 6b8:	00019b0a 	andeq	r9, r1, sl, lsl #22
 6bc:	58910200 	ldmpl	r1, {r9}
 6c0:	00046b10 	andeq	r6, r4, r0, lsl fp
 6c4:	09e10100 	stmibeq	r1!, {r8}^
 6c8:	0000029d 	muleq	r0, sp, r2
 6cc:	efd89104 	svc	0x00d89104
 6d0:	03d0127e 	bicseq	r1, r0, #-536870905	; 0xe0000007
 6d4:	e3010000 	movw	r0, #4096	; 0x1000
 6d8:	0000a402 	andeq	sl, r0, r2, lsl #8
 6dc:	00026a00 	andeq	r6, r2, r0, lsl #20
 6e0:	14001300 	strne	r1, [r0], #-768	; 0xfffffd00
 6e4:	2000084c 	andcs	r0, r0, ip, asr #16
 6e8:	0000006c 	andeq	r0, r0, ip, rrx
 6ec:	00000285 	andeq	r0, r0, r5, lsl #5
 6f0:	01006915 	tsteq	r0, r5, lsl r9
 6f4:	00a40df7 	strdeq	r0, [r4], r7	; <UNPREDICTABLE>
 6f8:	91020000 	mrsls	r0, (UNDEF: 2)
 6fc:	c2160064 	andsgt	r0, r6, #100	; 0x64
 700:	ea200008 	b	800728 <startup-0x1f7ff8d8>
 704:	15000000 	strne	r0, [r0, #-0]
 708:	ff010069 			; <UNDEFINED> instruction: 0xff010069
 70c:	0000a40d 	andeq	sl, r0, sp, lsl #8
 710:	60910200 	addsvs	r0, r1, r0, lsl #4
 714:	8f090000 	svchi	0x00090000
 718:	ae000001 	cdpge	0, 0, cr0, cr0, cr1, {0}
 71c:	0a000002 	beq	72c <startup-0x1ffff8d4>
 720:	00000025 	andeq	r0, r0, r5, lsr #32
 724:	170001ff 			; <UNDEFINED> instruction: 0x170001ff
 728:	00000432 	andeq	r0, r0, r2, lsr r4
 72c:	0d06c601 	stceq	6, cr12, [r6, #-4]
 730:	34000003 	strcc	r0, [r0], #-3
 734:	86200007 	strthi	r0, [r0], -r7
 738:	01000000 	mrseq	r0, (UNDEF: 0)
 73c:	00030d9c 	muleq	r3, ip, sp
 740:	04e81800 	strbteq	r1, [r8], #2048	; 0x800
 744:	c6010000 	strgt	r0, [r1], -r0
 748:	00019b18 	andeq	r9, r1, r8, lsl fp
 74c:	6c910200 	lfmvs	f0, 4, [r1], {0}
 750:	00046b18 	andeq	r6, r4, r8, lsl fp
 754:	2bc60100 	blcs	ff180b5c <points+0xdf176b28>
 758:	00000314 	andeq	r0, r0, r4, lsl r3
 75c:	18689102 	stmdane	r8!, {r1, r8, ip, pc}^
 760:	000004c5 	andeq	r0, r0, r5, asr #9
 764:	a43dc601 	ldrtge	ip, [sp], #-1537	; 0xfffff9ff
 768:	02000000 	andeq	r0, r0, #0
 76c:	64166491 	ldrvs	r6, [r6], #-1169	; 0xfffffb6f
 770:	4c200007 	stcmi	0, cr0, [r0], #-28	; 0xffffffe4
 774:	15000000 	strne	r0, [r0, #-0]
 778:	d0010069 	andle	r0, r1, r9, rrx
 77c:	0000a40b 	andeq	sl, r0, fp, lsl #8
 780:	74910200 	ldrvc	r0, [r1], #512	; 0x200
 784:	01020000 	mrseq	r0, (UNDEF: 2)
 788:	00009608 	andeq	r9, r0, r8, lsl #12
 78c:	8f040b00 	svchi	0x00040b00
 790:	17000001 	strne	r0, [r0, -r1]
 794:	00000347 	andeq	r0, r0, r7, asr #6
 798:	0d06c001 	stceq	0, cr12, [r6, #-4]
 79c:	02000003 	andeq	r0, r0, #3
 7a0:	32200007 	eorcc	r0, r0, #7
 7a4:	01000000 	mrseq	r0, (UNDEF: 0)
 7a8:	0003519c 	muleq	r3, ip, r1
 7ac:	316f1900 	cmncc	pc, r0, lsl #18
 7b0:	1ec00100 	polnes	f0, f0, f0
 7b4:	0000019b 	muleq	r0, fp, r1
 7b8:	19749102 	ldmdbne	r4!, {r1, r8, ip, pc}^
 7bc:	0100326f 	tsteq	r0, pc, ror #4
 7c0:	019b2ac0 	orrseq	r2, fp, r0, asr #21
 7c4:	91020000 	mrsls	r0, (UNDEF: 2)
 7c8:	831a0070 	tsthi	sl, #112	; 0x70
 7cc:	01000003 	tsteq	r0, r3
 7d0:	066606b4 			; <UNDEFINED> instruction: 0x066606b4
 7d4:	009c2000 	addseq	r2, ip, r0
 7d8:	9c010000 	stcls	0, cr0, [r1], {-0}
 7dc:	00000384 	andeq	r0, r0, r4, lsl #7
 7e0:	00316f19 	eorseq	r6, r1, r9, lsl pc
 7e4:	8f18b401 	svchi	0x0018b401
 7e8:	02000001 	andeq	r0, r0, #1
 7ec:	6f197091 	svcvs	0x00197091
 7f0:	b4010032 	strlt	r0, [r1], #-50	; 0xffffffce
 7f4:	00018f23 	andeq	r8, r1, r3, lsr #30
 7f8:	14910200 	ldrne	r0, [r1], #512	; 0x200
 7fc:	044e1100 	strbeq	r1, [lr], #-256	; 0xffffff00
 800:	ad010000 	stcge	0, cr0, [r1, #-0]
 804:	00062806 	andeq	r2, r6, r6, lsl #16
 808:	00003e20 	andeq	r3, r0, r0, lsr #28
 80c:	d09c0100 	addsle	r0, ip, r0, lsl #2
 810:	19000003 	stmdbne	r0, {r0, r1}
 814:	006a626f 	rsbeq	r6, sl, pc, ror #4
 818:	1419ad01 	ldrne	sl, [r9], #-3329	; 0xfffff2ff
 81c:	02000003 	andeq	r0, r0, #3
 820:	a9186c91 	ldmdbge	r8, {r0, r4, r7, sl, fp, sp, lr}
 824:	01000003 	tsteq	r0, r3
 828:	00a424ad 	adceq	r2, r4, sp, lsr #9
 82c:	91020000 	mrsls	r0, (UNDEF: 2)
 830:	06321668 	ldrteq	r1, [r2], -r8, ror #12
 834:	002a2000 	eoreq	r2, sl, r0
 838:	69150000 	ldmdbvs	r5, {}	; <UNPREDICTABLE>
 83c:	0baf0100 	bleq	febc0c44 <points+0xdebb6c10>
 840:	000000a4 	andeq	r0, r0, r4, lsr #1
 844:	00749102 	rsbseq	r9, r4, r2, lsl #2
 848:	03981700 	orrseq	r1, r8, #0, 14
 84c:	a0010000 	andge	r0, r1, r0
 850:	00018f08 	andeq	r8, r1, r8, lsl #30
 854:	0005b800 	andeq	fp, r5, r0, lsl #16
 858:	00007020 	andeq	r7, r0, r0, lsr #32
 85c:	159c0100 	ldrne	r0, [ip, #256]	; 0x100
 860:	19000004 	stmdbne	r0, {r2}
 864:	a0010078 	andge	r0, r1, r8, ror r0
 868:	0000a419 	andeq	sl, r0, r9, lsl r4
 86c:	40910200 	addsmi	r0, r1, r0, lsl #4
 870:	01007919 	tsteq	r0, r9, lsl r9
 874:	00a420a0 	adceq	r2, r4, r0, lsr #1
 878:	91030000 	mrsls	r0, (UNDEF: 3)
 87c:	6f157fbc 	svcvs	0x00157fbc
 880:	01006a62 	tsteq	r0, r2, ror #20
 884:	018f09a1 	orreq	r0, pc, r1, lsr #19
 888:	91020000 	mrsls	r0, (UNDEF: 2)
 88c:	2111004c 	tstcs	r1, ip, asr #32
 890:	01000003 	tsteq	r0, r3
 894:	058c0659 	streq	r0, [ip, #1625]	; 0x659
 898:	002c2000 	eoreq	r2, ip, r0
 89c:	9c010000 	stcls	0, cr0, [r1], {-0}
 8a0:	0000043b 	andeq	r0, r0, fp, lsr r4
 8a4:	00036818 	andeq	r6, r3, r8, lsl r8
 8a8:	19590100 	ldmdbne	r9, {r8}^
 8ac:	0000019b 	muleq	r0, fp, r1
 8b0:	00749102 	rsbseq	r9, r4, r2, lsl #2
 8b4:	0003571a 	andeq	r5, r3, sl, lsl r7
 8b8:	06510100 	ldrbeq	r0, [r1], -r0, lsl #2
 8bc:	20000560 	andcs	r0, r0, r0, ror #10
 8c0:	0000002c 	andeq	r0, r0, ip, lsr #32
 8c4:	04619c01 	strbteq	r9, [r1], #-3073	; 0xfffff3ff
 8c8:	bb180000 	bllt	6008d0 <startup-0x1f9ff730>
 8cc:	01000004 	tsteq	r0, r4
 8d0:	019b1951 	orrseq	r1, fp, r1, asr r9
 8d4:	91020000 	mrsls	r0, (UNDEF: 2)
 8d8:	5a1a0074 	bpl	680ab0 <startup-0x1f97f550>
 8dc:	01000004 	tsteq	r0, r4
 8e0:	0540064a 	strbeq	r0, [r0, #-1610]	; 0xfffff9b6
 8e4:	00202000 	eoreq	r2, r0, r0
 8e8:	9c010000 	stcls	0, cr0, [r1], {-0}
 8ec:	000004a1 	andeq	r0, r0, r1, lsr #9
 8f0:	6a626f19 	bvs	189c55c <startup-0x1e763aa4>
 8f4:	1f4a0100 	svcne	0x004a0100
 8f8:	0000019b 	muleq	r0, fp, r1
 8fc:	19749102 	ldmdbne	r4!, {r1, r8, ip, pc}^
 900:	4a010078 	bmi	40ae8 <startup-0x1ffbf518>
 904:	0000a428 	andeq	sl, r0, r8, lsr #8
 908:	70910200 	addsvc	r0, r1, r0, lsl #4
 90c:	01007919 	tsteq	r0, r9, lsl r9
 910:	00a42f4a 	adceq	r2, r4, sl, asr #30
 914:	91020000 	mrsls	r0, (UNDEF: 2)
 918:	9a11006c 	bls	440ad0 <startup-0x1fbbf530>
 91c:	01000004 	tsteq	r0, r4
 920:	04be063f 	ldrteq	r0, [lr], #1599	; 0x63f
 924:	00822000 	addeq	r2, r2, r0
 928:	9c010000 	stcls	0, cr0, [r1], {-0}
 92c:	00000511 	andeq	r0, r0, r1, lsl r5
 930:	6a626f19 	bvs	189c59c <startup-0x1e763a64>
 934:	1b3f0100 	blne	fc0d3c <startup-0x1f03f2c4>
 938:	0000019b 	muleq	r0, fp, r1
 93c:	105c9102 	subsne	r9, ip, r2, lsl #2
 940:	0000038e 	andeq	r0, r0, lr, lsl #7
 944:	a4064101 	strge	r4, [r6], #-257	; 0xfffffeff
 948:	02000000 	andeq	r0, r0, #0
 94c:	ce166891 	mrcgt	8, 0, r6, cr6, cr1, {4}
 950:	68200004 	stmdavs	r0!, {r2}
 954:	15000000 	strne	r0, [r0, #-0]
 958:	42010069 	andmi	r0, r1, #105	; 0x69
 95c:	0000a40a 	andeq	sl, r0, sl, lsl #8
 960:	6c910200 	lfmvs	f0, 4, [r1], {0}
 964:	0004d416 	andeq	sp, r4, r6, lsl r4
 968:	00005420 	andeq	r5, r0, r0, lsr #8
 96c:	00781500 	rsbseq	r1, r8, r0, lsl #10
 970:	33114401 	tstcc	r1, #16777216	; 0x1000000
 974:	02000000 	andeq	r0, r0, #0
 978:	79156791 	ldmdbvc	r5, {r0, r4, r7, r8, r9, sl, sp, lr}
 97c:	11450100 	mrsne	r0, (UNDEF: 85)
 980:	00000033 	andeq	r0, r0, r3, lsr r0
 984:	00669102 	rsbeq	r9, r6, r2, lsl #2
 988:	2c110000 	ldccs	0, cr0, [r1], {-0}
 98c:	01000003 	tsteq	r0, r3
 990:	043c0634 	ldrteq	r0, [ip], #-1588	; 0xfffff9cc
 994:	00822000 	addeq	r2, r2, r0
 998:	9c010000 	stcls	0, cr0, [r1], {-0}
 99c:	00000581 	andeq	r0, r0, r1, lsl #11
 9a0:	6a626f19 	bvs	189c60c <startup-0x1e7639f4>
 9a4:	1a340100 	bne	d00dac <startup-0x1f2ff254>
 9a8:	0000019b 	muleq	r0, fp, r1
 9ac:	105c9102 	subsne	r9, ip, r2, lsl #2
 9b0:	0000038e 	andeq	r0, r0, lr, lsl #7
 9b4:	a4063601 	strge	r3, [r6], #-1537	; 0xfffff9ff
 9b8:	02000000 	andeq	r0, r0, #0
 9bc:	4c166891 	ldcmi	8, cr6, [r6], {145}	; 0x91
 9c0:	68200004 	stmdavs	r0!, {r2}
 9c4:	15000000 	strne	r0, [r0, #-0]
 9c8:	37010069 	strcc	r0, [r1, -r9, rrx]
 9cc:	0000a40a 	andeq	sl, r0, sl, lsl #8
 9d0:	6c910200 	lfmvs	f0, 4, [r1], {0}
 9d4:	00045216 	andeq	r5, r4, r6, lsl r2
 9d8:	00005420 	andeq	r5, r0, r0, lsr #8
 9dc:	00781500 	rsbseq	r1, r8, r0, lsl #10
 9e0:	33113901 	tstcc	r1, #16384	; 0x4000
 9e4:	02000000 	andeq	r0, r0, #0
 9e8:	79156791 	ldmdbvc	r5, {r0, r4, r7, r8, r9, sl, sp, lr}
 9ec:	113a0100 	teqne	sl, r0, lsl #2
 9f0:	00000033 	andeq	r0, r0, r3, lsr r0
 9f4:	00669102 	rsbeq	r9, r6, r2, lsl #2
 9f8:	cc1a0000 	ldcgt	0, cr0, [sl], {-0}
 9fc:	01000004 	tsteq	r0, r4
 a00:	04360627 	ldrteq	r0, [r6], #-1575	; 0xfffff9d9
 a04:	00062000 	andeq	r2, r6, r0
 a08:	9c010000 	stcls	0, cr0, [r1], {-0}
 a0c:	000005b0 			; <UNDEFINED> instruction: 0x000005b0
 a10:	01007819 	tsteq	r0, r9, lsl r8
 a14:	00a41e27 	adceq	r1, r4, r7, lsr #28
 a18:	50010000 	andpl	r0, r1, r0
 a1c:	01007919 	tsteq	r0, r9, lsl r9
 a20:	00a42527 	adceq	r2, r4, r7, lsr #10
 a24:	51010000 	mrspl	r0, (UNDEF: 1)
 a28:	04761b00 	ldrbteq	r1, [r6], #-2816	; 0xfffff500
 a2c:	20010000 	andcs	r0, r1, r0
 a30:	00043006 	andeq	r3, r4, r6
 a34:	00000620 	andeq	r0, r0, r0, lsr #12
 a38:	1a9c0100 	bne	fe700e40 <points+0xde6f6e0c>
 a3c:	000003b0 			; <UNDEFINED> instruction: 0x000003b0
 a40:	2a061901 	bcs	186e4c <startup-0x1fe791b4>
 a44:	06200004 	strteq	r0, [r0], -r4
 a48:	01000000 	mrseq	r0, (UNDEF: 0)
 a4c:	0005f19c 	muleq	r5, ip, r1
 a50:	00781900 	rsbseq	r1, r8, r0, lsl #18
 a54:	a41c1901 	ldrge	r1, [ip], #-2305	; 0xfffff6ff
 a58:	01000000 	mrseq	r0, (UNDEF: 0)
 a5c:	00791950 	rsbseq	r1, r9, r0, asr r9
 a60:	a4231901 	strtge	r1, [r3], #-2305	; 0xfffff6ff
 a64:	01000000 	mrseq	r0, (UNDEF: 0)
 a68:	3c1b0051 	ldccc	0, cr0, [fp], {81}	; 0x51
 a6c:	01000004 	tsteq	r0, r4
 a70:	04240612 	strteq	r0, [r4], #-1554	; 0xfffff9ee
 a74:	00062000 	andeq	r2, r6, r0
 a78:	9c010000 	stcls	0, cr0, [r1], {-0}
 a7c:	0003e51b 	andeq	lr, r3, fp, lsl r5
 a80:	06070100 	streq	r0, [r7], -r0, lsl #2
 a84:	20000000 	andcs	r0, r0, r0
 a88:	0000000c 	andeq	r0, r0, ip
 a8c:	d1009c01 	tstle	r0, r1, lsl #24
 a90:	04000001 	streq	r0, [r0], #-1
 a94:	00038a00 	andeq	r8, r3, r0, lsl #20
 a98:	c8010400 	stmdagt	r1, {sl}
 a9c:	0c000000 	stceq	0, cr0, [r0], {-0}
 aa0:	000004ff 	strdeq	r0, [r0], -pc	; <UNPREDICTABLE>
 aa4:	00000000 	andeq	r0, r0, r0
 aa8:	20000aec 	andcs	r0, r0, ip, ror #21
 aac:	00000120 	andeq	r0, r0, r0, lsr #2
 ab0:	0000069a 	muleq	r0, sl, r6
 ab4:	20022802 	andcs	r2, r2, r2, lsl #16
 ab8:	0000ff12 	andeq	pc, r0, r2, lsl pc	; <UNPREDICTABLE>
 abc:	02fb0300 	rscseq	r0, fp, #0, 6
 ac0:	21020000 	mrscs	r0, (UNDEF: 2)
 ac4:	0001040e 	andeq	r0, r1, lr, lsl #8
 ac8:	a0030000 	andge	r0, r3, r0
 acc:	02000001 	andeq	r0, r0, #1
 ad0:	010b1422 	tsteq	fp, r2, lsr #8
 ad4:	03040000 	movweq	r0, #16384	; 0x4000
 ad8:	0000021c 	andeq	r0, r0, ip, lsl r2
 adc:	0b142302 	bleq	5096ec <startup-0x1faf6914>
 ae0:	06000001 	streq	r0, [r0], -r1
 ae4:	00027203 	andeq	r7, r2, r3, lsl #4
 ae8:	0e240200 	cdpeq	2, 2, cr0, cr4, cr0, {0}
 aec:	00000104 	andeq	r0, r0, r4, lsl #2
 af0:	02160308 	andseq	r0, r6, #8, 6	; 0x20000000
 af4:	25020000 	strcs	r0, [r2, #-0]
 af8:	0001040e 	andeq	r0, r1, lr, lsl #8
 afc:	86030c00 	strhi	r0, [r3], -r0, lsl #24
 b00:	02000002 	andeq	r0, r0, #2
 b04:	01120f26 	tsteq	r2, r6, lsr #30
 b08:	03100000 	tsteq	r0, #0
 b0c:	0000026a 	andeq	r0, r0, sl, ror #4
 b10:	120f2702 	andne	r2, pc, #524288	; 0x80000
 b14:	11000001 	tstne	r0, r1
 b18:	00022603 	andeq	r2, r2, r3, lsl #12
 b1c:	14280200 	strtne	r0, [r8], #-512	; 0xfffffe00
 b20:	0000010b 	andeq	r0, r0, fp, lsl #2
 b24:	02440312 	subeq	r0, r4, #1207959552	; 0x48000000
 b28:	29020000 	stmdbcs	r2, {}	; <UNPREDICTABLE>
 b2c:	0001120f 	andeq	r1, r1, pc, lsl #4
 b30:	a7031400 	strge	r1, [r3, -r0, lsl #8]
 b34:	02000001 	andeq	r0, r0, #1
 b38:	01120f2a 	tsteq	r2, sl, lsr #30
 b3c:	03150000 	tsteq	r5, #0
 b40:	00000230 	andeq	r0, r0, r0, lsr r2
 b44:	0b142b02 	bleq	50b754 <startup-0x1faf48ac>
 b48:	16000001 	strne	r0, [r0], -r1
 b4c:	00019003 	andeq	r9, r1, r3
 b50:	0e2c0200 	cdpeq	2, 2, cr0, cr12, cr0, {0}
 b54:	00000104 	andeq	r0, r0, r4, lsl #2
 b58:	03010318 	movweq	r0, #4888	; 0x1318
 b5c:	2d020000 	stccs	0, cr0, [r2, #-0]
 b60:	00010b14 	andeq	r0, r1, r4, lsl fp
 b64:	3a031c00 	bcc	c7b6c <startup-0x1ff38494>
 b68:	02000002 	andeq	r0, r0, #2
 b6c:	010b142e 	tsteq	fp, lr, lsr #8
 b70:	031e0000 	tsteq	lr, #0
 b74:	000001d2 	ldrdeq	r0, [r0], -r2
 b78:	040e2f02 	streq	r2, [lr], #-3842	; 0xfffff0fe
 b7c:	20000001 	andcs	r0, r0, r1
 b80:	0001cd03 	andeq	ip, r1, r3, lsl #26
 b84:	0e300200 	cdpeq	2, 3, cr0, cr0, cr0, {0}
 b88:	00000104 	andeq	r0, r0, r4, lsl #2
 b8c:	25040024 	strcs	r0, [r4, #-36]	; 0xffffffdc
 b90:	05000000 	streq	r0, [r0, #-0]
 b94:	00a10704 	adceq	r0, r1, r4, lsl #14
 b98:	02050000 	andeq	r0, r5, #0
 b9c:	00009b07 	andeq	r9, r0, r7, lsl #22
 ba0:	08010500 	stmdaeq	r1, {r8, sl}
 ba4:	0000008d 	andeq	r0, r0, sp, lsl #1
 ba8:	0001c706 	andeq	ip, r1, r6, lsl #14
 bac:	0a310200 	beq	c413b4 <startup-0x1f3bec4c>
 bb0:	00000125 	andeq	r0, r0, r5, lsr #2
 bb4:	00ff0407 	rscseq	r0, pc, r7, lsl #8
 bb8:	04080000 	streq	r0, [r8], #-0
 bbc:	746e6905 	strbtvc	r6, [lr], #-2309	; 0xfffff6fb
 bc0:	05410900 	strbeq	r0, [r1, #-2304]	; 0xfffff700
 bc4:	20010000 	andcs	r0, r1, r0
 bc8:	0001120f 	andeq	r1, r1, pc, lsl #4
 bcc:	000ba400 	andeq	sl, fp, r0, lsl #8
 bd0:	00006820 	andeq	r6, r0, r0, lsr #16
 bd4:	7a9c0100 	bvc	fe700fdc <points+0xde6f6fa8>
 bd8:	0a000001 	beq	be4 <startup-0x1ffff41c>
 bdc:	0079656b 	rsbseq	r6, r9, fp, ror #10
 be0:	7a102201 	bvc	4093ec <startup-0x1fbf6c14>
 be4:	02000001 	andeq	r0, r0, #1
 be8:	720a5891 	andvc	r5, sl, #9502720	; 0x910000
 bec:	0100776f 	tsteq	r0, pc, ror #14
 bf0:	012b0624 			; <UNDEFINED> instruction: 0x012b0624
 bf4:	91020000 	mrsls	r0, (UNDEF: 2)
 bf8:	6f630a6c 	svcvs	0x00630a6c
 bfc:	2401006c 	strcs	r0, [r1], #-108	; 0xffffff94
 c00:	00012b0b 	andeq	r2, r1, fp, lsl #22
 c04:	68910200 	ldmvs	r1, {r9}
 c08:	01120b00 	tsteq	r2, r0, lsl #22
 c0c:	018a0000 	orreq	r0, sl, r0
 c10:	040c0000 	streq	r0, [ip], #-0
 c14:	0f000001 	svceq	0x00000001
 c18:	05460d00 	strbeq	r0, [r6, #-3328]	; 0xfffff300
 c1c:	12010000 	andne	r0, r1, #0
 c20:	00012b05 	andeq	r2, r1, r5, lsl #22
 c24:	000b5000 	andeq	r5, fp, r0
 c28:	00005420 	andeq	r5, r0, r0, lsr #8
 c2c:	b29c0100 	addslt	r0, ip, #0, 2
 c30:	0a000001 	beq	c3c <startup-0x1ffff3c4>
 c34:	14010063 	strne	r0, [r1], #-99	; 0xffffff9d
 c38:	00011210 	andeq	r1, r1, r0, lsl r2
 c3c:	77910200 	ldrvc	r0, [r1, r0, lsl #4]
 c40:	04f30e00 	ldrbteq	r0, [r3], #3584	; 0xe00
 c44:	06010000 	streq	r0, [r1], -r0
 c48:	000aec06 	andeq	lr, sl, r6, lsl #24
 c4c:	00006420 	andeq	r6, r0, r0, lsr #8
 c50:	0f9c0100 	svceq	0x009c0100
 c54:	00776f72 	rsbseq	r6, r7, r2, ror pc
 c58:	041f0601 	ldreq	r0, [pc], #-1537	; c60 <startup-0x1ffff3a0>
 c5c:	02000001 	andeq	r0, r0, #1
 c60:	00007491 	muleq	r0, r1, r4
 c64:	00000177 	andeq	r0, r0, r7, ror r1
 c68:	047d0004 	ldrbteq	r0, [sp], #-4
 c6c:	01040000 	mrseq	r0, (UNDEF: 4)
 c70:	000000c8 	andeq	r0, r0, r8, asr #1
 c74:	0005650c 	andeq	r6, r5, ip, lsl #10
 c78:	00000000 	andeq	r0, r0, r0
 c7c:	000c0c00 	andeq	r0, ip, r0, lsl #24
 c80:	0000a620 	andeq	sl, r0, r0, lsr #12
 c84:	0007cd00 	andeq	ip, r7, r0, lsl #26
 c88:	02280200 	eoreq	r0, r8, #0, 4
 c8c:	00ff1220 	rscseq	r1, pc, r0, lsr #4
 c90:	fb030000 	blx	c0c9a <startup-0x1ff3f366>
 c94:	02000002 	andeq	r0, r0, #2
 c98:	01040e21 	tsteq	r4, r1, lsr #28
 c9c:	03000000 	movweq	r0, #0
 ca0:	000001a0 	andeq	r0, r0, r0, lsr #3
 ca4:	0b142202 	bleq	5094b4 <startup-0x1faf6b4c>
 ca8:	04000001 	streq	r0, [r0], #-1
 cac:	00021c03 	andeq	r1, r2, r3, lsl #24
 cb0:	14230200 	strtne	r0, [r3], #-512	; 0xfffffe00
 cb4:	0000010b 	andeq	r0, r0, fp, lsl #2
 cb8:	02720306 	rsbseq	r0, r2, #402653184	; 0x18000000
 cbc:	24020000 	strcs	r0, [r2], #-0
 cc0:	0001040e 	andeq	r0, r1, lr, lsl #8
 cc4:	16030800 	strne	r0, [r3], -r0, lsl #16
 cc8:	02000002 	andeq	r0, r0, #2
 ccc:	01040e25 	tsteq	r4, r5, lsr #28
 cd0:	030c0000 	movweq	r0, #49152	; 0xc000
 cd4:	00000286 	andeq	r0, r0, r6, lsl #5
 cd8:	120f2602 	andne	r2, pc, #2097152	; 0x200000
 cdc:	10000001 	andne	r0, r0, r1
 ce0:	00026a03 	andeq	r6, r2, r3, lsl #20
 ce4:	0f270200 	svceq	0x00270200
 ce8:	00000112 	andeq	r0, r0, r2, lsl r1
 cec:	02260311 	eoreq	r0, r6, #1140850688	; 0x44000000
 cf0:	28020000 	stmdacs	r2, {}	; <UNPREDICTABLE>
 cf4:	00010b14 	andeq	r0, r1, r4, lsl fp
 cf8:	44031200 	strmi	r1, [r3], #-512	; 0xfffffe00
 cfc:	02000002 	andeq	r0, r0, #2
 d00:	01120f29 	tsteq	r2, r9, lsr #30
 d04:	03140000 	tsteq	r4, #0
 d08:	000001a7 	andeq	r0, r0, r7, lsr #3
 d0c:	120f2a02 	andne	r2, pc, #8192	; 0x2000
 d10:	15000001 	strne	r0, [r0, #-1]
 d14:	00023003 	andeq	r3, r2, r3
 d18:	142b0200 	strtne	r0, [fp], #-512	; 0xfffffe00
 d1c:	0000010b 	andeq	r0, r0, fp, lsl #2
 d20:	01900316 	orrseq	r0, r0, r6, lsl r3
 d24:	2c020000 	stccs	0, cr0, [r2], {-0}
 d28:	0001040e 	andeq	r0, r1, lr, lsl #8
 d2c:	01031800 	tsteq	r3, r0, lsl #16
 d30:	02000003 	andeq	r0, r0, #3
 d34:	010b142d 	tsteq	fp, sp, lsr #8
 d38:	031c0000 	tsteq	ip, #0
 d3c:	0000023a 	andeq	r0, r0, sl, lsr r2
 d40:	0b142e02 	bleq	50c550 <startup-0x1faf3ab0>
 d44:	1e000001 	cdpne	0, 0, cr0, cr0, cr1, {0}
 d48:	0001d203 	andeq	sp, r1, r3, lsl #4
 d4c:	0e2f0200 	cdpeq	2, 2, cr0, cr15, cr0, {0}
 d50:	00000104 	andeq	r0, r0, r4, lsl #2
 d54:	01cd0320 	biceq	r0, sp, r0, lsr #6
 d58:	30020000 	andcc	r0, r2, r0
 d5c:	0001040e 	andeq	r0, r1, lr, lsl #8
 d60:	04002400 	streq	r2, [r0], #-1024	; 0xfffffc00
 d64:	00000025 	andeq	r0, r0, r5, lsr #32
 d68:	a1070405 	tstge	r7, r5, lsl #8
 d6c:	05000000 	streq	r0, [r0, #-0]
 d70:	009b0702 	addseq	r0, fp, r2, lsl #14
 d74:	01050000 	mrseq	r0, (UNDEF: 5)
 d78:	00008d08 	andeq	r8, r0, r8, lsl #26
 d7c:	01c70600 	biceq	r0, r7, r0, lsl #12
 d80:	31020000 	mrscc	r0, (UNDEF: 2)
 d84:	0001250a 	andeq	r2, r1, sl, lsl #10
 d88:	ff040700 			; <UNDEFINED> instruction: 0xff040700
 d8c:	08000000 	stmdaeq	r0, {}	; <UNPREDICTABLE>
 d90:	6e690504 	cdpvs	5, 6, cr0, cr9, cr4, {0}
 d94:	d0090074 	andle	r0, r9, r4, ror r0
 d98:	01000003 	tsteq	r0, r3
 d9c:	0c9c061c 	ldceq	6, cr0, [ip], {28}
 da0:	00162000 	andseq	r2, r6, r0
 da4:	9c010000 	stcls	0, cr0, [r1], {-0}
 da8:	0005a50a 	andeq	sl, r5, sl, lsl #10
 dac:	06140100 	ldreq	r0, [r4], -r0, lsl #2
 db0:	20000c60 	andcs	r0, r0, r0, ror #24
 db4:	0000003c 	andeq	r0, r0, ip, lsr r0
 db8:	5a0a9c01 	bpl	2a7dc4 <startup-0x1fd5823c>
 dbc:	01000005 	tsteq	r0, r5
 dc0:	0c38060d 	ldceq	6, cr0, [r8], #-52	; 0xffffffcc
 dc4:	00282000 	eoreq	r2, r8, r0
 dc8:	9c010000 	stcls	0, cr0, [r1], {-0}
 dcc:	00054e0a 	andeq	r4, r5, sl, lsl #28
 dd0:	07050100 	streq	r0, [r5, -r0, lsl #2]
 dd4:	20000c0c 	andcs	r0, r0, ip, lsl #24
 dd8:	0000002c 	andeq	r0, r0, ip, lsr #32
 ddc:	Address 0x00000ddc is out of bounds.


Disassembly of section .debug_abbrev:

00000000 <.debug_abbrev>:
   0:	25011101 	strcs	r1, [r1, #-257]	; 0xfffffeff
   4:	030b130e 	movweq	r1, #45838	; 0xb30e
   8:	110e1b0e 	tstne	lr, lr, lsl #22
   c:	10061201 	andne	r1, r6, r1, lsl #4
  10:	02000017 	andeq	r0, r0, #23
  14:	0b0b0024 	bleq	2c00ac <startup-0x1fd3ff54>
  18:	0e030b3e 	vmoveq.16	d3[0], r0
  1c:	24030000 	strcs	r0, [r3], #-0
  20:	3e0b0b00 	vmlacc.f64	d0, d11, d0
  24:	0008030b 	andeq	r0, r8, fp, lsl #6
  28:	012e0400 			; <UNDEFINED> instruction: 0x012e0400
  2c:	0e03193f 			; <UNDEFINED> instruction: 0x0e03193f
  30:	0b3b0b3a 	bleq	ec2d20 <startup-0x1f13d2e0>
  34:	19270b39 	stmdbne	r7!, {r0, r3, r4, r5, r8, r9, fp}
  38:	01111349 	tsteq	r1, r9, asr #6
  3c:	18400612 	stmdane	r0, {r1, r4, r9, sl}^
  40:	01194296 			; <UNDEFINED> instruction: 0x01194296
  44:	05000013 	streq	r0, [r0, #-19]	; 0xffffffed
  48:	08030005 	stmdaeq	r3, {r0, r2}
  4c:	0b3b0b3a 	bleq	ec2d3c <startup-0x1f13d2c4>
  50:	13490b39 	movtne	r0, #39737	; 0x9b39
  54:	00001802 	andeq	r1, r0, r2, lsl #16
  58:	03003406 	movweq	r3, #1030	; 0x406
  5c:	3b0b3a0e 	blcc	2ce89c <startup-0x1fd31764>
  60:	490b390b 	stmdbmi	fp, {r0, r1, r3, r8, fp, ip, sp}
  64:	00180213 	andseq	r0, r8, r3, lsl r2
  68:	00340700 	eorseq	r0, r4, r0, lsl #14
  6c:	0b3a0803 	bleq	e82080 <startup-0x1f17df80>
  70:	0b390b3b 	bleq	e42d64 <startup-0x1f1bd29c>
  74:	18021349 	stmdane	r2, {r0, r3, r6, r8, r9, ip}
  78:	2e080000 	cdpcs	0, 0, cr0, cr8, cr0, {0}
  7c:	03193f01 	tsteq	r9, #1, 30
  80:	3b0b3a0e 	blcc	2ce8c0 <startup-0x1fd31740>
  84:	270b390b 	strcs	r3, [fp, -fp, lsl #18]
  88:	12011119 	andne	r1, r1, #1073741830	; 0x40000006
  8c:	96184006 	ldrls	r4, [r8], -r6
  90:	13011942 	movwne	r1, #6466	; 0x1942
  94:	0b090000 	bleq	24009c <startup-0x1fdbff64>
  98:	12011101 	andne	r1, r1, #1073741824	; 0x40000000
  9c:	0a000006 	beq	bc <startup-0x1fffff44>
  a0:	193f002e 	ldmdbne	pc!, {r1, r2, r3, r5}	; <UNPREDICTABLE>
  a4:	0b3a0e03 	bleq	e838b8 <startup-0x1f17c748>
  a8:	0b390b3b 	bleq	e42d9c <startup-0x1f1bd264>
  ac:	01111927 	tsteq	r1, r7, lsr #18
  b0:	18400612 	stmdane	r0, {r1, r4, r9, sl}^
  b4:	00194297 	mulseq	r9, r7, r2
  b8:	11010000 	mrsne	r0, (UNDEF: 1)
  bc:	130e2501 	movwne	r2, #58625	; 0xe501
  c0:	1b0e030b 	blne	380cf4 <startup-0x1fc7f30c>
  c4:	1201110e 	andne	r1, r1, #-2147483645	; 0x80000003
  c8:	00171006 	andseq	r1, r7, r6
  cc:	01130200 	tsteq	r3, r0, lsl #4
  d0:	0b3a0b0b 	bleq	e82d04 <startup-0x1f17d2fc>
  d4:	0b390b3b 	bleq	e42dc8 <startup-0x1f1bd238>
  d8:	00001301 	andeq	r1, r0, r1, lsl #6
  dc:	03000d03 	movweq	r0, #3331	; 0xd03
  e0:	3b0b3a0e 	blcc	2ce920 <startup-0x1fd316e0>
  e4:	490b390b 	stmdbmi	fp, {r0, r1, r3, r8, fp, ip, sp}
  e8:	000b3813 	andeq	r3, fp, r3, lsl r8
  ec:	00350400 	eorseq	r0, r5, r0, lsl #8
  f0:	00001349 	andeq	r1, r0, r9, asr #6
  f4:	0b002405 	bleq	9110 <startup-0x1fff6ef0>
  f8:	030b3e0b 	movweq	r3, #48651	; 0xbe0b
  fc:	0600000e 	streq	r0, [r0], -lr
 100:	0e030016 	mcreq	0, 0, r0, cr3, cr6, {0}
 104:	0b3b0b3a 	bleq	ec2df4 <startup-0x1f13d20c>
 108:	13490b39 	movtne	r0, #39737	; 0x9b39
 10c:	0f070000 	svceq	0x00070000
 110:	490b0b00 	stmdbmi	fp, {r8, r9, fp}
 114:	08000013 	stmdaeq	r0, {r0, r1, r4}
 118:	0b0b0024 	bleq	2c01b0 <startup-0x1fd3fe50>
 11c:	08030b3e 	stmdaeq	r3, {r1, r2, r3, r4, r5, r8, r9, fp}
 120:	2e090000 	cdpcs	0, 0, cr0, cr9, cr0, {0}
 124:	03193f01 	tsteq	r9, #1, 30
 128:	3b0b3a0e 	blcc	2ce968 <startup-0x1fd31698>
 12c:	270b390b 	strcs	r3, [fp, -fp, lsl #18]
 130:	11134919 	tstne	r3, r9, lsl r9
 134:	40061201 	andmi	r1, r6, r1, lsl #4
 138:	19429618 	stmdbne	r2, {r3, r4, r9, sl, ip, pc}^
 13c:	00001301 	andeq	r1, r0, r1, lsl #6
 140:	0300050a 	movweq	r0, #1290	; 0x50a
 144:	3b0b3a0e 	blcc	2ce984 <startup-0x1fd3167c>
 148:	490b390b 	stmdbmi	fp, {r0, r1, r3, r8, fp, ip, sp}
 14c:	00180213 	andseq	r0, r8, r3, lsl r2
 150:	00340b00 	eorseq	r0, r4, r0, lsl #22
 154:	0b3a0803 	bleq	e82168 <startup-0x1f17de98>
 158:	0b390b3b 	bleq	e42e4c <startup-0x1f1bd1b4>
 15c:	18021349 	stmdane	r2, {r0, r3, r6, r8, r9, ip}
 160:	2e0c0000 	cdpcs	0, 0, cr0, cr12, cr0, {0}
 164:	03193f01 	tsteq	r9, #1, 30
 168:	3b0b3a0e 	blcc	2ce9a8 <startup-0x1fd31658>
 16c:	270b390b 	strcs	r3, [fp, -fp, lsl #18]
 170:	12011119 	andne	r1, r1, #1073741830	; 0x40000006
 174:	96184006 	ldrls	r4, [r8], -r6
 178:	13011942 	movwne	r1, #6466	; 0x1942
 17c:	050d0000 	streq	r0, [sp, #-0]
 180:	3a080300 	bcc	200d88 <startup-0x1fdff278>
 184:	390b3b0b 	stmdbcc	fp, {r0, r1, r3, r8, r9, fp, ip, sp}
 188:	0213490b 	andseq	r4, r3, #180224	; 0x2c000
 18c:	0e000018 	mcreq	0, 0, r0, cr0, cr8, {0}
 190:	193f002e 	ldmdbne	pc!, {r1, r2, r3, r5}	; <UNPREDICTABLE>
 194:	0b3a0e03 	bleq	e839a8 <startup-0x1f17c658>
 198:	0b390b3b 	bleq	e42e8c <startup-0x1f1bd174>
 19c:	01111927 	tsteq	r1, r7, lsr #18
 1a0:	18400612 	stmdane	r0, {r1, r4, r9, sl}^
 1a4:	00194296 	mulseq	r9, r6, r2
 1a8:	012e0f00 			; <UNDEFINED> instruction: 0x012e0f00
 1ac:	0e03193f 			; <UNDEFINED> instruction: 0x0e03193f
 1b0:	0b3b0b3a 	bleq	ec2ea0 <startup-0x1f13d160>
 1b4:	19270b39 	stmdbne	r7!, {r0, r3, r4, r5, r8, r9, fp}
 1b8:	06120111 			; <UNDEFINED> instruction: 0x06120111
 1bc:	42971840 	addsmi	r1, r7, #64, 16	; 0x400000
 1c0:	00130119 	andseq	r0, r3, r9, lsl r1
 1c4:	012e1000 			; <UNDEFINED> instruction: 0x012e1000
 1c8:	0e03193f 			; <UNDEFINED> instruction: 0x0e03193f
 1cc:	0b3b0b3a 	bleq	ec2ebc <startup-0x1f13d144>
 1d0:	19270b39 	stmdbne	r7!, {r0, r3, r4, r5, r8, r9, fp}
 1d4:	06120111 			; <UNDEFINED> instruction: 0x06120111
 1d8:	42971840 	addsmi	r1, r7, #64, 16	; 0x400000
 1dc:	00000019 	andeq	r0, r0, r9, lsl r0
 1e0:	25011101 	strcs	r1, [r1, #-257]	; 0xfffffeff
 1e4:	030b130e 	movweq	r1, #45838	; 0xb30e
 1e8:	550e1b0e 	strpl	r1, [lr, #-2830]	; 0xfffff4f2
 1ec:	10011117 	andne	r1, r1, r7, lsl r1
 1f0:	02000017 	andeq	r0, r0, #23
 1f4:	0b0b0024 	bleq	2c028c <startup-0x1fd3fd74>
 1f8:	0e030b3e 	vmoveq.16	d3[0], r0
 1fc:	13030000 	movwne	r0, #12288	; 0x3000
 200:	3a0b0b01 	bcc	2c2e0c <startup-0x1fd3d1f4>
 204:	390b3b0b 	stmdbcc	fp, {r0, r1, r3, r8, r9, fp, ip, sp}
 208:	0013010b 	andseq	r0, r3, fp, lsl #2
 20c:	000d0400 	andeq	r0, sp, r0, lsl #8
 210:	0b3a0803 	bleq	e82224 <startup-0x1f17dddc>
 214:	0b390b3b 	bleq	e42f08 <startup-0x1f1bd0f8>
 218:	0b381349 	bleq	e04f44 <startup-0x1f1fb0bc>
 21c:	16050000 	strne	r0, [r5], -r0
 220:	3a0e0300 	bcc	380e28 <startup-0x1fc7f1d8>
 224:	390b3b0b 	stmdbcc	fp, {r0, r1, r3, r8, r9, fp, ip, sp}
 228:	0013490b 	andseq	r4, r3, fp, lsl #18
 22c:	01130600 	tsteq	r3, r0, lsl #12
 230:	0b3a050b 	bleq	e81664 <startup-0x1f17e99c>
 234:	0b390b3b 	bleq	e42f28 <startup-0x1f1bd0d8>
 238:	00001301 	andeq	r1, r0, r1, lsl #6
 23c:	03000d07 	movweq	r0, #3335	; 0xd07
 240:	3b0b3a0e 	blcc	2cea80 <startup-0x1fd31580>
 244:	490b390b 	stmdbmi	fp, {r0, r1, r3, r8, fp, ip, sp}
 248:	000b3813 	andeq	r3, fp, r3, lsl r8
 24c:	00240800 	eoreq	r0, r4, r0, lsl #16
 250:	0b3e0b0b 	bleq	f82e84 <startup-0x1f07d17c>
 254:	00000803 	andeq	r0, r0, r3, lsl #16
 258:	49010109 	stmdbmi	r1, {r0, r3, r8}
 25c:	00130113 	andseq	r0, r3, r3, lsl r1
 260:	00210a00 	eoreq	r0, r1, r0, lsl #20
 264:	052f1349 	streq	r1, [pc, #-841]!	; ffffff23 <points+0xdfff5eef>
 268:	0f0b0000 	svceq	0x000b0000
 26c:	490b0b00 	stmdbmi	fp, {r8, r9, fp}
 270:	0c000013 	stceq	0, cr0, [r0], {19}
 274:	0e030113 	mcreq	1, 0, r0, cr3, cr3, {0}
 278:	0b3a0b0b 	bleq	e82eac <startup-0x1f17d154>
 27c:	0b390b3b 	bleq	e42f70 <startup-0x1f1bd090>
 280:	00001301 	andeq	r1, r0, r1, lsl #6
 284:	2701150d 	strcs	r1, [r1, -sp, lsl #10]
 288:	00130119 	andseq	r0, r3, r9, lsl r1
 28c:	00050e00 	andeq	r0, r5, r0, lsl #28
 290:	00001349 	andeq	r1, r0, r9, asr #6
 294:	0300340f 	movweq	r3, #1039	; 0x40f
 298:	3b0b3a0e 	blcc	2cead8 <startup-0x1fd31528>
 29c:	490b390b 	stmdbmi	fp, {r0, r1, r3, r8, fp, ip, sp}
 2a0:	02193f13 	andseq	r3, r9, #19, 30	; 0x4c
 2a4:	10000018 	andne	r0, r0, r8, lsl r0
 2a8:	0e030034 	mcreq	0, 0, r0, cr3, cr4, {1}
 2ac:	0b3b0b3a 	bleq	ec2f9c <startup-0x1f13d064>
 2b0:	13490b39 	movtne	r0, #39737	; 0x9b39
 2b4:	00001802 	andeq	r1, r0, r2, lsl #16
 2b8:	3f012e11 	svccc	0x00012e11
 2bc:	3a0e0319 	bcc	380f28 <startup-0x1fc7f0d8>
 2c0:	390b3b0b 	stmdbcc	fp, {r0, r1, r3, r8, r9, fp, ip, sp}
 2c4:	1119270b 	tstne	r9, fp, lsl #14
 2c8:	40061201 	andmi	r1, r6, r1, lsl #4
 2cc:	19429618 	stmdbne	r2, {r3, r4, r9, sl, ip, pc}^
 2d0:	00001301 	andeq	r1, r0, r1, lsl #6
 2d4:	3f012e12 	svccc	0x00012e12
 2d8:	3a0e0319 	bcc	380f44 <startup-0x1fc7f0bc>
 2dc:	390b3b0b 	stmdbcc	fp, {r0, r1, r3, r8, r9, fp, ip, sp}
 2e0:	3c13490b 			; <UNDEFINED> instruction: 0x3c13490b
 2e4:	00130119 	andseq	r0, r3, r9, lsl r1
 2e8:	00181300 	andseq	r1, r8, r0, lsl #6
 2ec:	0b140000 	bleq	5002f4 <startup-0x1faffd0c>
 2f0:	12011101 	andne	r1, r1, #1073741824	; 0x40000000
 2f4:	00130106 	andseq	r0, r3, r6, lsl #2
 2f8:	00341500 	eorseq	r1, r4, r0, lsl #10
 2fc:	0b3a0803 	bleq	e82310 <startup-0x1f17dcf0>
 300:	0b390b3b 	bleq	e42ff4 <startup-0x1f1bd00c>
 304:	18021349 	stmdane	r2, {r0, r3, r6, r8, r9, ip}
 308:	0b160000 	bleq	580310 <startup-0x1fa7fcf0>
 30c:	12011101 	andne	r1, r1, #1073741824	; 0x40000000
 310:	17000006 	strne	r0, [r0, -r6]
 314:	193f012e 	ldmdbne	pc!, {r1, r2, r3, r5, r8}	; <UNPREDICTABLE>
 318:	0b3a0e03 	bleq	e83b2c <startup-0x1f17c4d4>
 31c:	0b390b3b 	bleq	e43010 <startup-0x1f1bcff0>
 320:	13491927 	movtne	r1, #39207	; 0x9927
 324:	06120111 			; <UNDEFINED> instruction: 0x06120111
 328:	42971840 	addsmi	r1, r7, #64, 16	; 0x400000
 32c:	00130119 	andseq	r0, r3, r9, lsl r1
 330:	00051800 	andeq	r1, r5, r0, lsl #16
 334:	0b3a0e03 	bleq	e83b48 <startup-0x1f17c4b8>
 338:	0b390b3b 	bleq	e4302c <startup-0x1f1bcfd4>
 33c:	18021349 	stmdane	r2, {r0, r3, r6, r8, r9, ip}
 340:	05190000 	ldreq	r0, [r9, #-0]
 344:	3a080300 	bcc	200f4c <startup-0x1fdff0b4>
 348:	390b3b0b 	stmdbcc	fp, {r0, r1, r3, r8, r9, fp, ip, sp}
 34c:	0213490b 	andseq	r4, r3, #180224	; 0x2c000
 350:	1a000018 	bne	3b8 <startup-0x1ffffc48>
 354:	193f012e 	ldmdbne	pc!, {r1, r2, r3, r5, r8}	; <UNPREDICTABLE>
 358:	0b3a0e03 	bleq	e83b6c <startup-0x1f17c494>
 35c:	0b390b3b 	bleq	e43050 <startup-0x1f1bcfb0>
 360:	01111927 	tsteq	r1, r7, lsr #18
 364:	18400612 	stmdane	r0, {r1, r4, r9, sl}^
 368:	01194297 			; <UNDEFINED> instruction: 0x01194297
 36c:	1b000013 	blne	3c0 <startup-0x1ffffc40>
 370:	193f002e 	ldmdbne	pc!, {r1, r2, r3, r5}	; <UNPREDICTABLE>
 374:	0b3a0e03 	bleq	e83b88 <startup-0x1f17c478>
 378:	0b390b3b 	bleq	e4306c <startup-0x1f1bcf94>
 37c:	01111927 	tsteq	r1, r7, lsr #18
 380:	18400612 	stmdane	r0, {r1, r4, r9, sl}^
 384:	00194297 	mulseq	r9, r7, r2
 388:	11010000 	mrsne	r0, (UNDEF: 1)
 38c:	130e2501 	movwne	r2, #58625	; 0xe501
 390:	1b0e030b 	blne	380fc4 <startup-0x1fc7f03c>
 394:	1201110e 	andne	r1, r1, #-2147483645	; 0x80000003
 398:	00171006 	andseq	r1, r7, r6
 39c:	01130200 	tsteq	r3, r0, lsl #4
 3a0:	0b3a0b0b 	bleq	e82fd4 <startup-0x1f17d02c>
 3a4:	0b390b3b 	bleq	e43098 <startup-0x1f1bcf68>
 3a8:	00001301 	andeq	r1, r0, r1, lsl #6
 3ac:	03000d03 	movweq	r0, #3331	; 0xd03
 3b0:	3b0b3a0e 	blcc	2cebf0 <startup-0x1fd31410>
 3b4:	490b390b 	stmdbmi	fp, {r0, r1, r3, r8, fp, ip, sp}
 3b8:	000b3813 	andeq	r3, fp, r3, lsl r8
 3bc:	00350400 	eorseq	r0, r5, r0, lsl #8
 3c0:	00001349 	andeq	r1, r0, r9, asr #6
 3c4:	0b002405 	bleq	93e0 <startup-0x1fff6c20>
 3c8:	030b3e0b 	movweq	r3, #48651	; 0xbe0b
 3cc:	0600000e 	streq	r0, [r0], -lr
 3d0:	0e030016 	mcreq	0, 0, r0, cr3, cr6, {0}
 3d4:	0b3b0b3a 	bleq	ec30c4 <startup-0x1f13cf3c>
 3d8:	13490b39 	movtne	r0, #39737	; 0x9b39
 3dc:	0f070000 	svceq	0x00070000
 3e0:	490b0b00 	stmdbmi	fp, {r8, r9, fp}
 3e4:	08000013 	stmdaeq	r0, {r0, r1, r4}
 3e8:	0b0b0024 	bleq	2c0480 <startup-0x1fd3fb80>
 3ec:	08030b3e 	stmdaeq	r3, {r1, r2, r3, r4, r5, r8, r9, fp}
 3f0:	2e090000 	cdpcs	0, 0, cr0, cr9, cr0, {0}
 3f4:	03193f01 	tsteq	r9, #1, 30
 3f8:	3b0b3a0e 	blcc	2cec38 <startup-0x1fd313c8>
 3fc:	270b390b 	strcs	r3, [fp, -fp, lsl #18]
 400:	11134919 	tstne	r3, r9, lsl r9
 404:	40061201 	andmi	r1, r6, r1, lsl #4
 408:	19429618 	stmdbne	r2, {r3, r4, r9, sl, ip, pc}^
 40c:	00001301 	andeq	r1, r0, r1, lsl #6
 410:	0300340a 	movweq	r3, #1034	; 0x40a
 414:	3b0b3a08 	blcc	2cec3c <startup-0x1fd313c4>
 418:	490b390b 	stmdbmi	fp, {r0, r1, r3, r8, fp, ip, sp}
 41c:	00180213 	andseq	r0, r8, r3, lsl r2
 420:	01010b00 	tsteq	r1, r0, lsl #22
 424:	13011349 	movwne	r1, #4937	; 0x1349
 428:	210c0000 	mrscs	r0, (UNDEF: 12)
 42c:	2f134900 	svccs	0x00134900
 430:	0d00000b 	stceq	0, cr0, [r0, #-44]	; 0xffffffd4
 434:	193f012e 	ldmdbne	pc!, {r1, r2, r3, r5, r8}	; <UNPREDICTABLE>
 438:	0b3a0e03 	bleq	e83c4c <startup-0x1f17c3b4>
 43c:	0b390b3b 	bleq	e43130 <startup-0x1f1bced0>
 440:	13491927 	movtne	r1, #39207	; 0x9927
 444:	06120111 			; <UNDEFINED> instruction: 0x06120111
 448:	42971840 	addsmi	r1, r7, #64, 16	; 0x400000
 44c:	00130119 	andseq	r0, r3, r9, lsl r1
 450:	012e0e00 			; <UNDEFINED> instruction: 0x012e0e00
 454:	0e03193f 			; <UNDEFINED> instruction: 0x0e03193f
 458:	0b3b0b3a 	bleq	ec3148 <startup-0x1f13ceb8>
 45c:	19270b39 	stmdbne	r7!, {r0, r3, r4, r5, r8, r9, fp}
 460:	06120111 			; <UNDEFINED> instruction: 0x06120111
 464:	42971840 	addsmi	r1, r7, #64, 16	; 0x400000
 468:	0f000019 	svceq	0x00000019
 46c:	08030005 	stmdaeq	r3, {r0, r2}
 470:	0b3b0b3a 	bleq	ec3160 <startup-0x1f13cea0>
 474:	13490b39 	movtne	r0, #39737	; 0x9b39
 478:	00001802 	andeq	r1, r0, r2, lsl #16
 47c:	01110100 	tsteq	r1, r0, lsl #2
 480:	0b130e25 	bleq	4c3d1c <startup-0x1fb3c2e4>
 484:	0e1b0e03 	cdpeq	14, 1, cr0, cr11, cr3, {0}
 488:	06120111 			; <UNDEFINED> instruction: 0x06120111
 48c:	00001710 	andeq	r1, r0, r0, lsl r7
 490:	0b011302 	bleq	450a0 <startup-0x1ffbaf60>
 494:	3b0b3a0b 	blcc	2cecc8 <startup-0x1fd31338>
 498:	010b390b 	tsteq	fp, fp, lsl #18
 49c:	03000013 	movweq	r0, #19
 4a0:	0e03000d 	cdpeq	0, 0, cr0, cr3, cr13, {0}
 4a4:	0b3b0b3a 	bleq	ec3194 <startup-0x1f13ce6c>
 4a8:	13490b39 	movtne	r0, #39737	; 0x9b39
 4ac:	00000b38 	andeq	r0, r0, r8, lsr fp
 4b0:	49003504 	stmdbmi	r0, {r2, r8, sl, ip, sp}
 4b4:	05000013 	streq	r0, [r0, #-19]	; 0xffffffed
 4b8:	0b0b0024 	bleq	2c0550 <startup-0x1fd3fab0>
 4bc:	0e030b3e 	vmoveq.16	d3[0], r0
 4c0:	16060000 	strne	r0, [r6], -r0
 4c4:	3a0e0300 	bcc	3810cc <startup-0x1fc7ef34>
 4c8:	390b3b0b 	stmdbcc	fp, {r0, r1, r3, r8, r9, fp, ip, sp}
 4cc:	0013490b 	andseq	r4, r3, fp, lsl #18
 4d0:	000f0700 	andeq	r0, pc, r0, lsl #14
 4d4:	13490b0b 	movtne	r0, #39691	; 0x9b0b
 4d8:	24080000 	strcs	r0, [r8], #-0
 4dc:	3e0b0b00 	vmlacc.f64	d0, d11, d0
 4e0:	0008030b 	andeq	r0, r8, fp, lsl #6
 4e4:	002e0900 	eoreq	r0, lr, r0, lsl #18
 4e8:	0e03193f 			; <UNDEFINED> instruction: 0x0e03193f
 4ec:	0b3b0b3a 	bleq	ec31dc <startup-0x1f13ce24>
 4f0:	01110b39 	tsteq	r1, r9, lsr fp
 4f4:	18400612 	stmdane	r0, {r1, r4, r9, sl}^
 4f8:	00194296 	mulseq	r9, r6, r2
 4fc:	002e0a00 	eoreq	r0, lr, r0, lsl #20
 500:	0e03193f 			; <UNDEFINED> instruction: 0x0e03193f
 504:	0b3b0b3a 	bleq	ec31f4 <startup-0x1f13ce0c>
 508:	01110b39 	tsteq	r1, r9, lsr fp
 50c:	18400612 	stmdane	r0, {r1, r4, r9, sl}^
 510:	00194297 	mulseq	r9, r7, r2
	...

Disassembly of section .debug_aranges:

00000000 <.debug_aranges>:
   0:	0000001c 	andeq	r0, r0, ip, lsl r0
   4:	00000002 	andeq	r0, r0, r2
   8:	00040000 	andeq	r0, r4, r0
   c:	00000000 	andeq	r0, r0, r0
  10:	20000010 	andcs	r0, r0, r0, lsl r0
  14:	00000104 	andeq	r0, r0, r4, lsl #2
	...
  20:	0000001c 	andeq	r0, r0, ip, lsl r0
  24:	01110002 	tsteq	r1, r2
  28:	00040000 	andeq	r0, r4, r0
  2c:	00000000 	andeq	r0, r0, r0
  30:	20000114 	andcs	r0, r0, r4, lsl r1
  34:	00000310 	andeq	r0, r0, r0, lsl r3
	...
  40:	00000024 	andeq	r0, r0, r4, lsr #32
  44:	04790002 	ldrbteq	r0, [r9], #-2
  48:	00040000 	andeq	r0, r4, r0
  4c:	00000000 	andeq	r0, r0, r0
  50:	20000424 	andcs	r0, r0, r4, lsr #8
  54:	000006c8 	andeq	r0, r0, r8, asr #13
  58:	20000000 	andcs	r0, r0, r0
  5c:	0000000c 	andeq	r0, r0, ip
	...
  68:	0000001c 	andeq	r0, r0, ip, lsl r0
  6c:	0a8f0002 	beq	fe3c007c <points+0xde3b6048>
  70:	00040000 	andeq	r0, r4, r0
  74:	00000000 	andeq	r0, r0, r0
  78:	20000aec 	andcs	r0, r0, ip, ror #21
  7c:	00000120 	andeq	r0, r0, r0, lsr #2
	...
  88:	0000001c 	andeq	r0, r0, ip, lsl r0
  8c:	0c640002 	stcleq	0, cr0, [r4], #-8
  90:	00040000 	andeq	r0, r4, r0
  94:	00000000 	andeq	r0, r0, r0
  98:	20000c0c 	andcs	r0, r0, ip, lsl #24
  9c:	000000a6 	andeq	r0, r0, r6, lsr #1
	...

Disassembly of section .debug_line:

00000000 <.debug_line>:
   0:	00000115 	andeq	r0, r0, r5, lsl r1
   4:	00630003 	rsbeq	r0, r3, r3
   8:	01020000 	mrseq	r0, (UNDEF: 2)
   c:	000d0efb 	strdeq	r0, [sp], -fp
  10:	01010101 	tsteq	r1, r1, lsl #2
  14:	01000000 	mrseq	r0, (UNDEF: 0)
  18:	43010000 	movwmi	r0, #4096	; 0x1000
  1c:	73552f3a 	cmpvc	r5, #58, 30	; 0xe8
  20:	2f737265 	svccs	0x00737265
  24:	726e6568 	rsbvc	r6, lr, #104, 10	; 0x1a000000
  28:	6e4f2f79 	mcrvs	15, 2, r2, cr15, cr9, {3}
  2c:	69724465 	ldmdbvs	r2!, {r0, r2, r5, r6, sl, lr}^
  30:	532f6576 			; <UNDEFINED> instruction: 0x532f6576
  34:	7669726b 	strbtvc	r7, [r9], -fp, ror #4
  38:	64726f62 	ldrbtvs	r6, [r2], #-3938	; 0xfffff09e
  3c:	3254562f 	subscc	r5, r4, #49283072	; 0x2f00000
  40:	4f4d2f31 	svcmi	0x004d2f31
  44:	4f4d2f50 	svcmi	0x004d2f50
  48:	4f4d2f50 	svcmi	0x004d2f50
  4c:	6e732f50 	mrcvs	15, 3, r2, cr3, cr0, {2}
  50:	00656b61 	rsbeq	r6, r5, r1, ror #22
  54:	756f6300 	strbvc	r6, [pc, #-768]!	; fffffd5c <points+0xdfff5d28>
  58:	6e69746e 	cdpvs	4, 6, cr7, cr9, cr14, {3}
  5c:	69635f67 	stmdbvs	r3!, {r0, r1, r2, r5, r6, r8, r9, sl, fp, ip, lr}^
  60:	69756372 	ldmdbvs	r5!, {r1, r4, r5, r6, r8, r9, sp, lr}^
  64:	632e7374 			; <UNDEFINED> instruction: 0x632e7374
  68:	00000100 	andeq	r0, r0, r0, lsl #2
  6c:	00010500 	andeq	r0, r1, r0, lsl #10
  70:	00100205 	andseq	r0, r0, r5, lsl #4
  74:	05172000 	ldreq	r2, [r7, #-0]
  78:	0c053002 	stceq	0, cr3, [r5], {2}
  7c:	2f020520 	svccs	0x00020520
  80:	05200c05 	streq	r0, [r0, #-3077]!	; 0xfffff3fb
  84:	0b052f02 	bleq	14bc94 <startup-0x1feb436c>
  88:	2f020520 	svccs	0x00020520
  8c:	05200c05 	streq	r0, [r0, #-3077]!	; 0xfffff3fb
  90:	0a052f07 	beq	14bcb4 <startup-0x1feb434c>
  94:	01040200 	mrseq	r0, R12_usr
  98:	00140520 	andseq	r0, r4, r0, lsr #10
  9c:	2e010402 	cdpcs	4, 0, cr0, cr1, cr2, {0}
  a0:	02000705 	andeq	r0, r0, #1310720	; 0x140000
  a4:	053c0104 	ldreq	r0, [ip, #-260]!	; 0xfffffefc
  a8:	0c052102 	stfeqs	f2, [r5], {2}
  ac:	2f010520 	svccs	0x00010520
  b0:	4c0505a1 	cfstr32mi	mvfx0, [r5], {161}	; 0xa1
  b4:	05830405 	streq	r0, [r3, #1029]	; 0x405
  b8:	0b053e07 	bleq	14f8dc <startup-0x1feb0724>
  bc:	2e030522 	cfsh32cs	mvfx0, mvfx3, #18
  c0:	02001c05 	andeq	r1, r0, #1280	; 0x500
  c4:	05200304 	streq	r0, [r0, #-772]!	; 0xfffffcfc
  c8:	04020018 	streq	r0, [r2], #-24	; 0xffffffe8
  cc:	03052e03 	movweq	r2, #24067	; 0x5e03
  d0:	01040200 	mrseq	r0, R12_usr
  d4:	3d05053c 	cfstr32cc	mvfx0, [r5, #-240]	; 0xffffff10
  d8:	05390705 	ldreq	r0, [r9, #-1797]!	; 0xfffff8fb
  dc:	23054101 	movwcs	r4, #20737	; 0x5101
  e0:	4b07055a 	blmi	1c1650 <startup-0x1fe3e9b0>
  e4:	05220305 	streq	r0, [r2, #-773]!	; 0xfffffcfb
  e8:	07053d05 	streq	r3, [r5, -r5, lsl #26]
  ec:	41010539 	tstmi	r1, r9, lsr r5
  f0:	055e0205 	ldrbeq	r0, [lr, #-517]	; 0xfffffdfb
  f4:	11055918 	tstne	r5, r8, lsl r9
  f8:	2008053c 	andcs	r0, r8, ip, lsr r5
  fc:	053d1b05 	ldreq	r1, [sp, #-2821]!	; 0xfffff4fb
 100:	25053c21 	strcs	r3, [r5, #-3105]	; 0xfffff3df
 104:	201b053c 	andscs	r0, fp, ip, lsr r5
 108:	054a2905 	strbeq	r2, [sl, #-2309]	; 0xfffff6fb
 10c:	09053c10 	stmdbeq	r5, {r4, sl, fp, ip, sp}
 110:	2f02054b 	svccs	0x0002054b
 114:	01000702 	tsteq	r0, r2, lsl #14
 118:	0001a901 	andeq	sl, r1, r1, lsl #18
 11c:	71000300 	mrsvc	r0, LR_irq
 120:	02000000 	andeq	r0, r0, #0
 124:	0d0efb01 	vstreq	d15, [lr, #-4]
 128:	01010100 	mrseq	r0, (UNDEF: 17)
 12c:	00000001 	andeq	r0, r0, r1
 130:	01000001 	tsteq	r0, r1
 134:	552f3a43 	strpl	r3, [pc, #-2627]!	; fffff6f9 <points+0xdfff56c5>
 138:	73726573 	cmnvc	r2, #482344960	; 0x1cc00000
 13c:	6e65682f 	cdpvs	8, 6, cr6, cr5, cr15, {1}
 140:	4f2f7972 	svcmi	0x002f7972
 144:	7244656e 	subvc	r6, r4, #461373440	; 0x1b800000
 148:	2f657669 	svccs	0x00657669
 14c:	69726b53 	ldmdbvs	r2!, {r0, r1, r4, r6, r8, r9, fp, sp, lr}^
 150:	726f6276 	rsbvc	r6, pc, #1610612743	; 0x60000007
 154:	54562f64 	ldrbpl	r2, [r6], #-3940	; 0xfffff09c
 158:	4d2f3132 	stfmis	f3, [pc, #-200]!	; 98 <startup-0x1fffff68>
 15c:	4d2f504f 	stcmi	0, cr5, [pc, #-316]!	; 28 <startup-0x1fffffd8>
 160:	4d2f504f 	stcmi	0, cr5, [pc, #-316]!	; 2c <startup-0x1fffffd4>
 164:	732f504f 			; <UNDEFINED> instruction: 0x732f504f
 168:	656b616e 	strbvs	r6, [fp, #-366]!	; 0xfffffe92
 16c:	73610000 	cmnvc	r1, #0
 170:	5f696963 	svcpl	0x00696963
 174:	70736964 	rsbsvc	r6, r3, r4, ror #18
 178:	2e79616c 	rpwcsez	f6, f1, #4.0
 17c:	00010063 	andeq	r0, r1, r3, rrx
 180:	63656400 	cmnvs	r5, #0, 8
 184:	6172616c 	cmnvs	r2, ip, ror #2
 188:	6e6f6974 			; <UNDEFINED> instruction: 0x6e6f6974
 18c:	00682e73 	rsbeq	r2, r8, r3, ror lr
 190:	00000001 	andeq	r0, r0, r1
 194:	05000105 	streq	r0, [r0, #-261]	; 0xfffffefb
 198:	00011402 	andeq	r1, r1, r2, lsl #8
 19c:	01090320 	tsteq	r9, r0, lsr #6
 1a0:	05680605 	strbeq	r0, [r8, #-1541]!	; 0xfffff9fb
 1a4:	10052004 	andne	r2, r5, r4
 1a8:	6602054b 	strvs	r0, [r2], -fp, asr #10
 1ac:	05201005 	streq	r1, [r0, #-5]!
 1b0:	05694b01 	strbeq	r4, [r9, #-2817]!	; 0xfffff4ff
 1b4:	04056806 	streq	r6, [r5], #-2054	; 0xfffff7fa
 1b8:	4b080520 	blmi	201640 <startup-0x1fdfe9c0>
 1bc:	059e0405 	ldreq	r0, [lr, #1029]	; 0x405
 1c0:	10052f02 	andne	r2, r5, r2, lsl #30
 1c4:	67010520 	strvs	r0, [r1, -r0, lsr #10]
 1c8:	68020569 	stmdavs	r2, {r0, r3, r5, r6, r8, sl}
 1cc:	2011053d 	andscs	r0, r1, sp, lsr r5
 1d0:	2f3d0205 	svccs	0x003d0205
 1d4:	693e0105 	ldmdbvs	lr!, {r0, r2, r8}
 1d8:	053e0205 	ldreq	r0, [lr, #-517]!	; 0xfffffdfb
 1dc:	03053f04 	movweq	r3, #24324	; 0x5f04
 1e0:	3d020520 	cfstr32cc	mvfx0, [r2, #-128]	; 0xffffff80
 1e4:	053d0905 	ldreq	r0, [sp, #-2309]!	; 0xfffff6fb
 1e8:	05772f01 	ldrbeq	r2, [r7, #-3841]!	; 0xfffff0ff
 1ec:	3d3d6702 	ldccc	7, cr6, [sp, #-8]!
 1f0:	4d590105 	ldfmie	f0, [r9, #-20]	; 0xffffffec
 1f4:	3d670205 	sfmcc	f0, 2, [r7, #-20]!	; 0xffffffec
 1f8:	5901053d 	stmdbpl	r1, {r0, r2, r3, r4, r5, r8, sl}
 1fc:	3e02054d 	cfsh32cc	mvfx0, mvfx2, #45
 200:	05200f05 	streq	r0, [r0, #-3845]!	; 0xfffff0fb
 204:	053d2f02 	ldreq	r2, [sp, #-3842]!	; 0xfffff0fe
 208:	02053d06 	andeq	r3, r5, #384	; 0x180
 20c:	200f055a 	andcs	r0, pc, sl, asr r5	; <UNPREDICTABLE>
 210:	052f0905 	streq	r0, [pc, #-2309]!	; fffff913 <points+0xdfff58df>
 214:	05a12f01 	streq	r2, [r1, #3841]!	; 0xf01
 218:	02053d0f 	andeq	r3, r5, #960	; 0x3c0
 21c:	0b053d67 	bleq	14f7c0 <startup-0x1feb0840>
 220:	590f053d 	stmdbpl	pc, {r0, r2, r3, r4, r5, r8, sl}	; <UNPREDICTABLE>
 224:	05670905 	strbeq	r0, [r7, #-2309]!	; 0xfffff6fb
 228:	05852f01 	streq	r2, [r5, #3841]	; 0xf01
 22c:	0a056707 	beq	159e50 <startup-0x1fea61b0>
 230:	01040200 	mrseq	r0, R12_usr
 234:	001e0520 	andseq	r0, lr, r0, lsr #10
 238:	3c010402 	cfstrscc	mvf0, [r1], {2}
 23c:	02000705 	andeq	r0, r0, #1310720	; 0x140000
 240:	053c0104 	ldreq	r0, [ip, #-260]!	; 0xfffffefc
 244:	053d2f02 	ldreq	r2, [sp, #-3842]!	; 0xfffff0fe
 248:	18055901 	stmdane	r5, {r0, r8, fp, ip, lr}
 24c:	3002054c 	andcc	r0, r2, ip, asr #10
 250:	3e3d3e3d 	mrccc	14, 1, r3, cr13, cr13, {1}
 254:	053d3e3d 	ldreq	r3, [sp, #-3645]!	; 0xfffff1c3
 258:	053f3d01 	ldreq	r3, [pc, #-3329]!	; fffff55f <points+0xdfff552b>
 25c:	0a056707 	beq	159e80 <startup-0x1fea6180>
 260:	01040200 	mrseq	r0, R12_usr
 264:	001e0520 	andseq	r0, lr, r0, lsr #10
 268:	3c010402 	cfstrscc	mvf0, [r1], {2}
 26c:	02000705 	andeq	r0, r0, #1310720	; 0x140000
 270:	053c0104 	ldreq	r0, [ip, #-260]!	; 0xfffffefc
 274:	593d2f02 	ldmdbpl	sp!, {r1, r8, r9, sl, fp, sp}
 278:	4d3d0105 	ldfmis	f0, [sp, #-20]!	; 0xffffffec
 27c:	05910705 	ldreq	r0, [r1, #1797]	; 0x705
 280:	16056704 	strne	r6, [r5], -r4, lsl #14
 284:	01040200 	mrseq	r0, R12_usr
 288:	5902054a 	stmdbpl	r2, {r1, r3, r6, r8, sl}
 28c:	4f9f0105 	svcmi	0x009f0105
 290:	2f5a0205 	svccs	0x005a0205
 294:	054b0405 	strbeq	r0, [fp, #-1029]	; 0xfffffbfb
 298:	16052f07 	strne	r2, [r5], -r7, lsl #30
 29c:	3c030521 	cfstr32cc	mvfx0, [r3], {33}	; 0x21
 2a0:	05490905 	strbeq	r0, [r9, #-2309]	; 0xfffff6fb
 2a4:	02052e07 	andeq	r2, r5, #7, 28	; 0x70
 2a8:	4b040531 	blmi	101774 <startup-0x1fefe88c>
 2ac:	052f0705 	streq	r0, [pc, #-1797]!	; fffffbaf <points+0xdfff5b7b>
 2b0:	03052116 	movweq	r2, #20758	; 0x5116
 2b4:	4909053c 	stmdbmi	r9, {r2, r3, r4, r5, r8, sl}
 2b8:	052e0705 	streq	r0, [lr, #-1797]!	; 0xfffff8fb
 2bc:	01053109 	tsteq	r5, r9, lsl #2
 2c0:	00040221 	andeq	r0, r4, r1, lsr #4
 2c4:	03d00101 	bicseq	r0, r0, #1073741824	; 0x40000000
 2c8:	00030000 	andeq	r0, r3, r0
 2cc:	00000068 	andeq	r0, r0, r8, rrx
 2d0:	0efb0102 	cdpeq	1, 15, cr0, cr11, cr2, {0}
 2d4:	0101000d 	tsteq	r1, sp
 2d8:	00000101 	andeq	r0, r0, r1, lsl #2
 2dc:	00000100 	andeq	r0, r0, r0, lsl #2
 2e0:	2f3a4301 	svccs	0x003a4301
 2e4:	72657355 	rsbvc	r7, r5, #1409286145	; 0x54000001
 2e8:	65682f73 	strbvs	r2, [r8, #-3955]!	; 0xfffff08d
 2ec:	2f79726e 	svccs	0x0079726e
 2f0:	44656e4f 	strbtmi	r6, [r5], #-3663	; 0xfffff1b1
 2f4:	65766972 	ldrbvs	r6, [r6, #-2418]!	; 0xfffff68e
 2f8:	726b532f 	rsbvc	r5, fp, #-1140850688	; 0xbc000000
 2fc:	6f627669 	svcvs	0x00627669
 300:	562f6472 			; <UNDEFINED> instruction: 0x562f6472
 304:	2f313254 	svccs	0x00313254
 308:	2f504f4d 	svccs	0x00504f4d
 30c:	2f504f4d 	svccs	0x00504f4d
 310:	2f504f4d 	svccs	0x00504f4d
 314:	6b616e73 	blvs	185bce8 <startup-0x1e7a4318>
 318:	67000065 	strvs	r0, [r0, -r5, rrx]
 31c:	2e656d61 	cdpcs	13, 6, cr6, cr5, cr1, {3}
 320:	00010063 	andeq	r0, r1, r3, rrx
 324:	63656400 	cmnvs	r5, #0, 8
 328:	6172616c 	cmnvs	r2, ip, ror #2
 32c:	6e6f6974 			; <UNDEFINED> instruction: 0x6e6f6974
 330:	00682e73 	rsbeq	r2, r8, r3, ror lr
 334:	00000001 	andeq	r0, r0, r1
 338:	05000105 	streq	r0, [r0, #-261]	; 0xfffffefb
 33c:	00000002 	andeq	r0, r0, r2
 340:	21131920 	tstcs	r3, r0, lsr #18
 344:	02212f21 	eoreq	r2, r1, #33, 30	; 0x84
 348:	01010003 	tsteq	r1, r3
 34c:	05000105 	streq	r0, [r0, #-261]	; 0xfffffefb
 350:	00042402 	andeq	r2, r4, r2, lsl #8
 354:	01120320 	tsteq	r2, r0, lsr #6
 358:	13210205 			; <UNDEFINED> instruction: 0x13210205
 35c:	24210105 	strtcs	r0, [r1], #-261	; 0xfffffefb
 360:	13210205 			; <UNDEFINED> instruction: 0x13210205
 364:	24210105 	strtcs	r0, [r1], #-261	; 0xfffffefb
 368:	13210205 			; <UNDEFINED> instruction: 0x13210205
 36c:	24210105 	strtcs	r0, [r1], #-261	; 0xfffffefb
 370:	13210205 			; <UNDEFINED> instruction: 0x13210205
 374:	03210105 			; <UNDEFINED> instruction: 0x03210105
 378:	1605200a 	strne	r2, [r5], -sl
 37c:	2e06054b 	cfsh32cs	mvfx0, mvfx6, #43
 380:	052f0a05 	streq	r0, [pc, #-2565]!	; fffff983 <points+0xdfff594f>
 384:	19052e02 	stmdbne	r5, {r1, r9, sl, fp, sp}
 388:	03040200 	movweq	r0, #16896	; 0x4200
 38c:	00280522 	eoreq	r0, r8, r2, lsr #10
 390:	2e030402 	cdpcs	4, 0, cr0, cr3, cr2, {0}
 394:	02003205 	andeq	r3, r0, #1342177280	; 0x50000000
 398:	05660304 	strbeq	r0, [r6, #-772]!	; 0xfffffcfc
 39c:	0402002b 	streq	r0, [r2], #-43	; 0xffffffd5
 3a0:	11052e03 	tstne	r5, r3, lsl #28
 3a4:	03040200 	movweq	r0, #16896	; 0x4200
 3a8:	0019053c 	andseq	r0, r9, ip, lsr r5
 3ac:	4b030402 	blmi	c13bc <startup-0x1ff3ec44>
 3b0:	02002805 	andeq	r2, r0, #327680	; 0x50000
 3b4:	052e0304 	streq	r0, [lr, #-772]!	; 0xfffffcfc
 3b8:	04020032 	streq	r0, [r2], #-50	; 0xffffffce
 3bc:	2b056603 	blcs	159bd0 <startup-0x1fea6430>
 3c0:	03040200 	movweq	r0, #16896	; 0x4200
 3c4:	0011052e 	andseq	r0, r1, lr, lsr #10
 3c8:	3c030402 	cfstrscc	mvf0, [r3], {2}
 3cc:	02000305 	andeq	r0, r0, #335544320	; 0x14000000
 3d0:	054b0304 	strbeq	r0, [fp, #-772]	; 0xfffffcfc
 3d4:	04020021 	streq	r0, [r2], #-33	; 0xffffffdf
 3d8:	02057e03 	andeq	r7, r5, #3, 28	; 0x30
 3dc:	01040200 	mrseq	r0, R12_usr
 3e0:	5001053c 	andpl	r0, r1, ip, lsr r5
 3e4:	4b16055b 	blmi	581958 <startup-0x1fa7e6a8>
 3e8:	052e0605 	streq	r0, [lr, #-1541]!	; 0xfffff9fb
 3ec:	02052f0a 	andeq	r2, r5, #10, 30	; 0x28
 3f0:	0019052e 	andseq	r0, r9, lr, lsr #10
 3f4:	22030402 	andcs	r0, r3, #33554432	; 0x2000000
 3f8:	02002805 	andeq	r2, r0, #327680	; 0x50000
 3fc:	052e0304 	streq	r0, [lr, #-772]!	; 0xfffffcfc
 400:	04020032 	streq	r0, [r2], #-50	; 0xffffffce
 404:	2b056603 	blcs	159c18 <startup-0x1fea63e8>
 408:	03040200 	movweq	r0, #16896	; 0x4200
 40c:	0011052e 	andseq	r0, r1, lr, lsr #10
 410:	3c030402 	cfstrscc	mvf0, [r3], {2}
 414:	02001905 	andeq	r1, r0, #81920	; 0x14000
 418:	054b0304 	strbeq	r0, [fp, #-772]	; 0xfffffcfc
 41c:	04020028 	streq	r0, [r2], #-40	; 0xffffffd8
 420:	32052e03 	andcc	r2, r5, #3, 28	; 0x30
 424:	03040200 	movweq	r0, #16896	; 0x4200
 428:	002b0566 	eoreq	r0, fp, r6, ror #10
 42c:	2e030402 	cdpcs	4, 0, cr0, cr3, cr2, {0}
 430:	02001105 	andeq	r1, r0, #1073741825	; 0x40000001
 434:	053c0304 	ldreq	r0, [ip, #-772]!	; 0xfffffcfc
 438:	04020003 	streq	r0, [r2], #-3
 43c:	21054b03 	tstcs	r5, r3, lsl #22
 440:	03040200 	movweq	r0, #16896	; 0x4200
 444:	0002057e 	andeq	r0, r2, lr, ror r5
 448:	3c010402 	cfstrscc	mvf0, [r1], {2}
 44c:	5b500105 	blpl	1400868 <startup-0x1ebff798>
 450:	3d670e05 	stclcc	14, cr0, [r7, #-20]!	; 0xffffffec
 454:	4e3d0105 	rsfmie	f0, f5, f5
 458:	054c1005 	strbeq	r1, [ip, #-5]
 45c:	10052e19 	andne	r2, r5, r9, lsl lr
 460:	19053d2e 	stmdbne	r5, {r1, r2, r3, r5, r8, sl, fp, ip, sp}
 464:	2e10052e 	cfmul64cs	mvdx0, mvdx0, mvdx14
 468:	4e3d0105 	rsfmie	f0, f5, f5
 46c:	054b1305 	strbeq	r1, [fp, #-773]	; 0xfffffcfb
 470:	13055811 	movwne	r5, #22545	; 0x5811
 474:	5811052f 	ldmdapl	r1, {r0, r1, r2, r3, r5, r8, sl}
 478:	052f0105 	streq	r0, [pc, #-261]!	; 37b <startup-0x1ffffc85>
 47c:	00c30323 	sbceq	r0, r3, r3, lsr #6
 480:	6709054a 	strvs	r0, [r9, -sl, asr #10]
 484:	ac080903 			; <UNDEFINED> instruction: 0xac080903
 488:	05830105 	streq	r0, [r3, #261]	; 0x105
 48c:	0b05d82c 	bleq	176544 <startup-0x1fe89abc>
 490:	2e02055a 	cfrshl32cs	mvfx2, mvfx10, r0
 494:	02001305 	andeq	r1, r0, #335544320	; 0x14000000
 498:	05210304 	streq	r0, [r1, #-772]!	; 0xfffffcfc
 49c:	0402000f 	streq	r0, [r2], #-15
 4a0:	03056603 	movweq	r6, #22019	; 0x5603
 4a4:	03040200 	movweq	r0, #16896	; 0x4200
 4a8:	001f052e 	andseq	r0, pc, lr, lsr #10
 4ac:	3b030402 	blcc	c14bc <startup-0x1ff3eb44>
 4b0:	02000205 	andeq	r0, r0, #1342177280	; 0x50000000
 4b4:	053c0104 	ldreq	r0, [ip, #-260]!	; 0xfffffefc
 4b8:	27054d01 	strcs	r4, [r5, -r1, lsl #26]
 4bc:	ca08055a 	bgt	201a2c <startup-0x1fdfe5d4>
 4c0:	05581105 	ldrbeq	r1, [r8, #-261]	; 0xfffffefb
 4c4:	1c059005 	stcne	0, cr9, [r5], {5}
 4c8:	01040200 	mrseq	r0, R12_usr
 4cc:	0025052e 	eoreq	r0, r5, lr, lsr #10
 4d0:	4a010402 	bmi	414e0 <startup-0x1ffbeb20>
 4d4:	02001705 	andeq	r1, r0, #1310720	; 0x140000
 4d8:	05900104 	ldreq	r0, [r0, #260]	; 0x104
 4dc:	0a052f0d 	beq	14c118 <startup-0x1feb3ee8>
 4e0:	4b0d0590 	blmi	341b28 <startup-0x1fcbe4d8>
 4e4:	05900a05 	ldreq	r0, [r0, #2565]	; 0xa05
 4e8:	05894c01 	streq	r4, [r9, #3073]	; 0xc01
 4ec:	1b055a0d 	blne	156d28 <startup-0x1fea92d8>
 4f0:	2e23052e 	cfsh64cs	mvdx0, mvdx3, #30
 4f4:	02002805 	andeq	r2, r0, #327680	; 0x50000
 4f8:	052e0104 	streq	r0, [lr, #-260]!	; 0xfffffefc
 4fc:	04020034 	streq	r0, [r2], #-52	; 0xffffffcc
 500:	23052e01 	movwcs	r2, #24065	; 0x5e01
 504:	01040200 	mrseq	r0, R12_usr
 508:	0402002e 	streq	r0, [r2], #-46	; 0xffffffd2
 50c:	002e0603 	eoreq	r0, lr, r3, lsl #12
 510:	2e040402 	cdpcs	4, 0, cr0, cr4, cr2, {0}
 514:	06040200 	streq	r0, [r4], -r0, lsl #4
 518:	00010520 	andeq	r0, r1, r0, lsr #10
 51c:	06060402 	streq	r0, [r6], -r2, lsl #8
 520:	10054d21 	andne	r4, r5, r1, lsr #26
 524:	2e050568 	cfsh32cs	mvfx0, mvfx5, #56
 528:	02000d05 	andeq	r0, r0, #320	; 0x140
 52c:	052f0104 	streq	r0, [pc, #-260]!	; 430 <startup-0x1ffffbd0>
 530:	0402001b 	streq	r0, [r2], #-27	; 0xffffffe5
 534:	0d052d01 	stceq	13, cr2, [r5, #-4]
 538:	2d230530 	cfstr32cs	mvfx0, [r3, #-192]!	; 0xffffff40
 53c:	05300d05 	ldreq	r0, [r0, #-3333]!	; 0xfffff2fb
 540:	0a052d18 	beq	14b9a8 <startup-0x1feb4658>
 544:	310b0530 	tstcc	fp, r0, lsr r5
 548:	052e0205 	streq	r0, [lr, #-517]!	; 0xfffffdfb
 54c:	14052111 	strne	r2, [r5], #-273	; 0xfffffeef
 550:	20270582 	eorcs	r0, r7, r2, lsl #11
 554:	052e0605 	streq	r0, [lr, #-1541]!	; 0xfffff9fb
 558:	0402000e 	streq	r0, [r2], #-14
 55c:	11052f01 	tstne	r5, r1, lsl #30
 560:	01040200 	mrseq	r0, R12_usr
 564:	00240582 	eoreq	r0, r4, r2, lsl #11
 568:	20010402 	andcs	r0, r1, r2, lsl #8
 56c:	02002e05 	andeq	r2, r0, #5, 28	; 0x50
 570:	052d0104 	streq	r0, [sp, #-260]!	; 0xfffffefc
 574:	1b05300b 	blne	14c5a8 <startup-0x1feb3a58>
 578:	02040200 	andeq	r0, r4, #0, 4
 57c:	0002052b 	andeq	r0, r2, fp, lsr #10
 580:	3c010402 	cfstrscc	mvf0, [r1], {2}
 584:	05500905 	ldrbeq	r0, [r0, #-2309]	; 0xfffff6fb
 588:	05502101 	ldrbeq	r2, [r0, #-257]	; 0xfffffeff
 58c:	054b4c0a 	strbeq	r4, [fp, #-3082]	; 0xfffff3f6
 590:	2f2f4d02 	svccs	0x002f4d02
 594:	052f0905 	streq	r0, [pc, #-2309]!	; fffffc97 <points+0xdfff5c63>
 598:	08054a02 	stmdaeq	r5, {r1, r9, fp, lr}
 59c:	2203054c 	andcs	r0, r3, #76, 10	; 0x13000000
 5a0:	05300a05 	ldreq	r0, [r0, #-2565]!	; 0xfffff5fb
 5a4:	674b4a03 	strbvs	r4, [fp, -r3, lsl #20]
 5a8:	05920605 	ldreq	r0, [r2, #1541]	; 0x605
 5ac:	04059005 	streq	r9, [r5], #-5
 5b0:	0d056823 	stceq	8, cr6, [r5, #-140]	; 0xffffff74
 5b4:	4a04055a 	bmi	101b24 <startup-0x1fefe4dc>
 5b8:	02001a05 	andeq	r1, r0, #20480	; 0x5000
 5bc:	05210304 	streq	r0, [r1, #-772]!	; 0xfffffcfc
 5c0:	0402000f 	streq	r0, [r2], #-15
 5c4:	1a057403 	bne	15d5d8 <startup-0x1fea2a28>
 5c8:	03040200 	movweq	r0, #16896	; 0x4200
 5cc:	000b052e 	andeq	r0, fp, lr, lsr #10
 5d0:	08030402 	stmdaeq	r3, {r1, sl}
 5d4:	00290568 	eoreq	r0, r9, r8, ror #10
 5d8:	55030402 	strpl	r0, [r3, #-1026]	; 0xfffffbfe
 5dc:	02000405 	andeq	r0, r0, #83886080	; 0x5000000
 5e0:	05660104 	strbeq	r0, [r6, #-260]!	; 0xfffffefc
 5e4:	0d056c14 	stceq	12, cr6, [r5, #-80]	; 0xffffffb0
 5e8:	04053e2e 	streq	r3, [r5], #-3630	; 0xfffff1d2
 5ec:	002b054a 	eoreq	r0, fp, sl, asr #10
 5f0:	21030402 	tstcs	r3, r2, lsl #8
 5f4:	02000505 	andeq	r0, r0, #20971520	; 0x1400000
 5f8:	054a0304 	strbeq	r0, [sl, #-772]	; 0xfffffcfc
 5fc:	04020024 	streq	r0, [r2], #-36	; 0xffffffdc
 600:	132b0203 			; <UNDEFINED> instruction: 0x132b0203
 604:	02002705 	andeq	r2, r0, #1310720	; 0x140000
 608:	054a0304 	strbeq	r0, [sl, #-772]	; 0xfffffcfc
 60c:	04020017 	streq	r0, [r2], #-23	; 0xffffffe9
 610:	2405ac03 	strcs	sl, [r5], #-3075	; 0xfffff3fd
 614:	03040200 	movweq	r0, #16896	; 0x4200
 618:	002705bb 	strhteq	r0, [r7], -fp
 61c:	3c030402 	cfstrscc	mvf0, [r3], {2}
 620:	02001705 	andeq	r1, r0, #1310720	; 0x140000
 624:	059e0304 	ldreq	r0, [lr, #772]	; 0x304
 628:	0402001f 	streq	r0, [r2], #-31	; 0xffffffe1
 62c:	1a05b703 	bne	16e240 <startup-0x1fe91dc0>
 630:	01040200 	mrseq	r0, R12_usr
 634:	00130558 	andseq	r0, r3, r8, asr r5
 638:	3c010402 	cfstrscc	mvf0, [r1], {2}
 63c:	02000405 	andeq	r0, r0, #83886080	; 0x5000000
 640:	053c0104 	ldreq	r0, [ip, #-260]!	; 0xfffffefc
 644:	2a053415 	bcs	14d6a0 <startup-0x1feb2960>
 648:	4a1e053c 	bmi	781b40 <startup-0x1f87e4c0>
 64c:	05ad1505 	streq	r1, [sp, #1285]!	; 0x505
 650:	1e053c2a 	cdpne	12, 0, cr3, cr5, cr10, {1}
 654:	a20b053c 	andge	r0, fp, #60, 10	; 0xf000000
 658:	053c0305 	ldreq	r0, [ip, #-773]!	; 0xfffffcfb
 65c:	0c05ae17 	stceq	14, cr10, [r5], {23}
 660:	5804054a 	stmdapl	r4, {r1, r3, r6, r8, sl}
 664:	05221705 	streq	r1, [r2, #-1797]!	; 0xfffff8fb
 668:	04054a0c 	streq	r4, [r5], #-2572	; 0xfffff5f4
 66c:	22170566 	andscs	r0, r7, #427819008	; 0x19800000
 670:	054a0c05 	strbeq	r0, [sl, #-3077]	; 0xfffff3fb
 674:	17056604 	strne	r6, [r5, -r4, lsl #12]
 678:	4a0c0522 	bmi	301b08 <startup-0x1fcfe4f8>
 67c:	05580405 	ldrbeq	r0, [r8, #-1029]	; 0xfffffbfb
 680:	05682403 	strbeq	r2, [r8, #-1027]!	; 0xfffffbfd
 684:	3c50030a 	mrrccc	3, 0, r0, r0, cr10	; <UNPREDICTABLE>
 688:	05ba0805 	ldreq	r0, [sl, #2053]!	; 0x805
 68c:	2e330302 	cdpcs	3, 3, cr0, cr3, cr2, {0}
 690:	01052f3d 	tsteq	r5, sp, lsr pc
 694:	00240268 	eoreq	r0, r4, r8, ror #4
 698:	012f0101 			; <UNDEFINED> instruction: 0x012f0101
 69c:	00030000 	andeq	r0, r3, r0
 6a0:	0000006a 	andeq	r0, r0, sl, rrx
 6a4:	0efb0102 	cdpeq	1, 15, cr0, cr11, cr2, {0}
 6a8:	0101000d 	tsteq	r1, sp
 6ac:	00000101 	andeq	r0, r0, r1, lsl #2
 6b0:	00000100 	andeq	r0, r0, r0, lsl #2
 6b4:	2f3a4301 	svccs	0x003a4301
 6b8:	72657355 	rsbvc	r7, r5, #1409286145	; 0x54000001
 6bc:	65682f73 	strbvs	r2, [r8, #-3955]!	; 0xfffff08d
 6c0:	2f79726e 	svccs	0x0079726e
 6c4:	44656e4f 	strbtmi	r6, [r5], #-3663	; 0xfffff1b1
 6c8:	65766972 	ldrbvs	r6, [r6, #-2418]!	; 0xfffff68e
 6cc:	726b532f 	rsbvc	r5, fp, #-1140850688	; 0xbc000000
 6d0:	6f627669 	svcvs	0x00627669
 6d4:	562f6472 			; <UNDEFINED> instruction: 0x562f6472
 6d8:	2f313254 	svccs	0x00313254
 6dc:	2f504f4d 	svccs	0x00504f4d
 6e0:	2f504f4d 	svccs	0x00504f4d
 6e4:	2f504f4d 	svccs	0x00504f4d
 6e8:	6b616e73 	blvs	185c0bc <startup-0x1e7a3f44>
 6ec:	6b000065 	blvs	888 <startup-0x1ffff778>
 6f0:	61707965 	cmnvs	r0, r5, ror #18
 6f4:	00632e64 	rsbeq	r2, r3, r4, ror #28
 6f8:	64000001 	strvs	r0, [r0], #-1
 6fc:	616c6365 	cmnvs	ip, r5, ror #6
 700:	69746172 	ldmdbvs	r4!, {r1, r4, r5, r6, r8, sp, lr}^
 704:	2e736e6f 	cdpcs	14, 7, cr6, cr3, cr15, {3}
 708:	00010068 	andeq	r0, r1, r8, rrx
 70c:	01050000 	mrseq	r0, (UNDEF: 5)
 710:	ec020500 	cfstr32	mvfx0, [r2], {-0}
 714:	1820000a 	stmdane	r0!, {r1, r3}
 718:	054b0205 	strbeq	r0, [fp, #-517]	; 0xfffffdfb
 71c:	052f080b 	streq	r0, [pc, #-2059]!	; ffffff19 <points+0xdfff5ee5>
 720:	03052019 	movweq	r2, #20505	; 0x5019
 724:	210b052e 	tstcs	fp, lr, lsr #10
 728:	05201905 	streq	r1, [r0, #-2309]!	; 0xfffff6fb
 72c:	0b052e03 	bleq	14bf40 <startup-0x1feb40c0>
 730:	20190521 	andscs	r0, r9, r1, lsr #10
 734:	052e0305 	streq	r0, [lr, #-773]!	; 0xfffffcfb
 738:	1905210b 	stmdbne	r5, {r0, r1, r3, r8, sp}
 73c:	2e030520 	cfsh32cs	mvfx0, mvfx3, #16
 740:	05220c05 	streq	r0, [r2, #-3077]!	; 0xfffff3fb
 744:	0105201a 	tsteq	r5, sl, lsl r0
 748:	06058530 			; <UNDEFINED> instruction: 0x06058530
 74c:	2004053e 	andcs	r0, r4, lr, lsr r5
 750:	053d0705 	ldreq	r0, [sp, #-1797]!	; 0xfffff8fb
 754:	13054a04 	movwne	r4, #23044	; 0x5a04
 758:	01040200 	mrseq	r0, R12_usr
 75c:	2f070520 	svccs	0x00070520
 760:	054a0405 	strbeq	r0, [sl, #-1029]	; 0xfffffbfb
 764:	04020013 	streq	r0, [r2], #-19	; 0xffffffed
 768:	07052001 	streq	r2, [r5, -r1]
 76c:	4a04052f 	bmi	101c30 <startup-0x1fefe3d0>
 770:	02001305 	andeq	r1, r0, #335544320	; 0x14000000
 774:	05200104 	streq	r0, [r0, #-260]!	; 0xfffffefc
 778:	04052f07 	streq	r2, [r5], #-3847	; 0xfffff0f9
 77c:	0013054a 	andseq	r0, r3, sl, asr #10
 780:	20010402 	andcs	r0, r1, r2, lsl #8
 784:	052f0905 	streq	r0, [pc, #-2309]!	; fffffe87 <points+0xdfff5e53>
 788:	056c2101 	strbeq	r2, [ip, #-257]!	; 0xfffffeff
 78c:	0a053d10 	beq	14fbd4 <startup-0x1feb042c>
 790:	2e020569 	cfsh32cs	mvfx0, mvfx2, #57
 794:	05210305 	streq	r0, [r1, #-773]!	; 0xfffffcfb
 798:	05054b0a 	streq	r4, [r5, #-2826]	; 0xfffff4f6
 79c:	3d04054a 	cfstr32cc	mvfx0, [r4, #-296]	; 0xfffffed8
 7a0:	053d1505 	ldreq	r1, [sp, #-1285]!	; 0xfffffafb
 7a4:	1d052e10 	stcne	14, cr2, [r5, #-64]	; 0xffffffc0
 7a8:	2e180520 	cfmul64cs	mvdx0, mvdx8, mvdx0
 7ac:	05200e05 	streq	r0, [r0, #-3589]!	; 0xfffff1fb
 7b0:	0402001c 	streq	r0, [r2], #-28	; 0xffffffe4
 7b4:	02053802 	andeq	r3, r5, #131072	; 0x20000
 7b8:	01040200 	mrseq	r0, R12_usr
 7bc:	0805433c 	stmdaeq	r5, {r2, r3, r4, r5, r8, r9, lr}
 7c0:	0001053d 	andeq	r0, r1, sp, lsr r5
 7c4:	21010402 	tstcs	r1, r2, lsl #8
 7c8:	01000702 	tsteq	r0, r2, lsl #14
 7cc:	0000c301 	andeq	ip, r0, r1, lsl #6
 7d0:	68000300 	stmdavs	r0, {r8, r9}
 7d4:	02000000 	andeq	r0, r0, #0
 7d8:	0d0efb01 	vstreq	d15, [lr, #-4]
 7dc:	01010100 	mrseq	r0, (UNDEF: 17)
 7e0:	00000001 	andeq	r0, r0, r1
 7e4:	01000001 	tsteq	r0, r1
 7e8:	552f3a43 	strpl	r3, [pc, #-2627]!	; fffffdad <points+0xdfff5d79>
 7ec:	73726573 	cmnvc	r2, #482344960	; 0x1cc00000
 7f0:	6e65682f 	cdpvs	8, 6, cr6, cr5, cr15, {1}
 7f4:	4f2f7972 	svcmi	0x002f7972
 7f8:	7244656e 	subvc	r6, r4, #461373440	; 0x1b800000
 7fc:	2f657669 	svccs	0x00657669
 800:	69726b53 	ldmdbvs	r2!, {r0, r1, r4, r6, r8, r9, fp, sp, lr}^
 804:	726f6276 	rsbvc	r6, pc, #1610612743	; 0x60000007
 808:	54562f64 	ldrbpl	r2, [r6], #-3940	; 0xfffff09c
 80c:	4d2f3132 	stfmis	f3, [pc, #-200]!	; 74c <startup-0x1ffff8b4>
 810:	4d2f504f 	stcmi	0, cr5, [pc, #-316]!	; 6dc <startup-0x1ffff924>
 814:	4d2f504f 	stcmi	0, cr5, [pc, #-316]!	; 6e0 <startup-0x1ffff920>
 818:	732f504f 			; <UNDEFINED> instruction: 0x732f504f
 81c:	656b616e 	strbvs	r6, [fp, #-366]!	; 0xfffffe92
 820:	6e690000 	cdpvs	0, 6, cr0, cr9, cr0, {0}
 824:	632e7469 			; <UNDEFINED> instruction: 0x632e7469
 828:	00000100 	andeq	r0, r0, r0, lsl #2
 82c:	6c636564 	cfstr64vs	mvdx6, [r3], #-400	; 0xfffffe70
 830:	74617261 	strbtvc	r7, [r1], #-609	; 0xfffffd9f
 834:	736e6f69 	cmnvc	lr, #420	; 0x1a4
 838:	0100682e 	tsteq	r0, lr, lsr #16
 83c:	05000000 	streq	r0, [r0, #-0]
 840:	02050002 	andeq	r0, r5, #2
 844:	20000c0c 	andcs	r0, r0, ip, lsl #24
 848:	0f052f17 	svceq	0x00052f17
 84c:	3d020520 	cfstr32cc	mvfx0, [r2, #-128]	; 0xffffff80
 850:	05201005 	streq	r1, [r0, #-5]!
 854:	0f052f02 	svceq	0x00052f02
 858:	3d020520 	cfstr32cc	mvfx0, [r2, #-128]	; 0xffffff80
 85c:	05201105 	streq	r1, [r0, #-261]!	; 0xfffffefb
 860:	055b3d01 	ldrbeq	r3, [fp, #-3329]	; 0xfffff2ff
 864:	0f052f02 	svceq	0x00052f02
 868:	2f020520 	svccs	0x00020520
 86c:	05200f05 	streq	r0, [r0, #-3845]!	; 0xfffff0fb
 870:	10052f02 	andne	r2, r5, r2, lsl #30
 874:	2f010520 	svccs	0x00010520
 878:	2f0c0593 	svccs	0x000c0593
 87c:	05830205 	streq	r0, [r3, #517]	; 0x205
 880:	053d200c 	ldreq	r2, [sp, #-12]!
 884:	05858401 	streq	r8, [r5, #1025]	; 0x401
 888:	2f2f2f02 	svccs	0x002f2f02
 88c:	022f0105 	eoreq	r0, pc, #1073741825	; 0x40000001
 890:	01010003 	tsteq	r1, r3

Disassembly of section .debug_str:

00000000 <.debug_str>:
   0:	555c3a43 	ldrbpl	r3, [ip, #-2627]	; 0xfffff5bd
   4:	73726573 	cmnvc	r2, #482344960	; 0x1cc00000
   8:	6e65685c 	mcrvs	8, 3, r6, cr5, cr12, {2}
   c:	4f5c7972 	svcmi	0x005c7972
  10:	7244656e 	subvc	r6, r4, #461373440	; 0x1b800000
  14:	5c657669 	stclpl	6, cr7, [r5], #-420	; 0xfffffe5c
  18:	69726b53 	ldmdbvs	r2!, {r0, r1, r4, r6, r8, r9, fp, sp, lr}^
  1c:	726f6276 	rsbvc	r6, pc, #1610612743	; 0x60000007
  20:	54565c64 	ldrbpl	r5, [r6], #-3172	; 0xfffff39c
  24:	4d5c3132 	ldfmie	f3, [ip, #-200]	; 0xffffff38
  28:	4d5c504f 	ldclmi	0, cr5, [ip, #-316]	; 0xfffffec4
  2c:	4d5c504f 	ldclmi	0, cr5, [ip, #-316]	; 0xfffffec4
  30:	735c504f 	cmpvc	ip, #79	; 0x4f
  34:	656b616e 	strbvs	r6, [fp, #-366]!	; 0xfffffe92
  38:	6e617200 	cdpvs	2, 6, cr7, cr1, cr0, {0}
  3c:	006d6f64 	rsbeq	r6, sp, r4, ror #30
  40:	552f3a43 	strpl	r3, [pc, #-2627]!	; fffff605 <points+0xdfff55d1>
  44:	73726573 	cmnvc	r2, #482344960	; 0x1cc00000
  48:	6e65682f 	cdpvs	8, 6, cr6, cr5, cr15, {1}
  4c:	4f2f7972 	svcmi	0x002f7972
  50:	7244656e 	subvc	r6, r4, #461373440	; 0x1b800000
  54:	2f657669 	svccs	0x00657669
  58:	69726b53 	ldmdbvs	r2!, {r0, r1, r4, r6, r8, r9, fp, sp, lr}^
  5c:	726f6276 	rsbvc	r6, pc, #1610612743	; 0x60000007
  60:	54562f64 	ldrbpl	r2, [r6], #-3940	; 0xfffff09c
  64:	4d2f3132 	stfmis	f3, [pc, #-200]!	; ffffffa4 <points+0xdfff5f70>
  68:	4d2f504f 	stcmi	0, cr5, [pc, #-316]!	; ffffff34 <points+0xdfff5f00>
  6c:	4d2f504f 	stcmi	0, cr5, [pc, #-316]!	; ffffff38 <points+0xdfff5f04>
  70:	732f504f 			; <UNDEFINED> instruction: 0x732f504f
  74:	656b616e 	strbvs	r6, [fp, #-366]!	; 0xfffffe92
  78:	756f632f 	strbvc	r6, [pc, #-815]!	; fffffd51 <points+0xdfff5d1d>
  7c:	6e69746e 	cdpvs	4, 6, cr7, cr9, cr14, {3}
  80:	69635f67 	stmdbvs	r3!, {r0, r1, r2, r5, r6, r8, r9, sl, fp, ip, lr}^
  84:	69756372 	ldmdbvs	r5!, {r1, r4, r5, r6, r8, r9, sp, lr}^
  88:	632e7374 			; <UNDEFINED> instruction: 0x632e7374
  8c:	736e7500 	cmnvc	lr, #0, 10
  90:	656e6769 	strbvs	r6, [lr, #-1897]!	; 0xfffff897
  94:	68632064 	stmdavs	r3!, {r2, r5, r6, sp}^
  98:	73007261 	movwvc	r7, #609	; 0x261
  9c:	74726f68 	ldrbtvc	r6, [r2], #-3944	; 0xfffff098
  a0:	736e7520 	cmnvc	lr, #32, 10	; 0x8000000
  a4:	656e6769 	strbvs	r6, [lr, #-1897]!	; 0xfffff897
  a8:	6e692064 	cdpvs	0, 6, cr2, cr9, cr4, {3}
  ac:	61720074 	cmnvs	r2, r4, ror r0
  b0:	6d6f646e 	cfstrdvs	mvd6, [pc, #-440]!	; ffffff00 <points+0xdfff5ecc>
  b4:	6d756e5f 	ldclvs	14, cr6, [r5, #-380]!	; 0xfffffe84
  b8:	00726562 	rsbseq	r6, r2, r2, ror #10
  bc:	616c6564 	cmnvs	ip, r4, ror #10
  c0:	35325f79 	ldrcc	r5, [r2, #-3961]!	; 0xfffff087
  c4:	00736e30 	rsbseq	r6, r3, r0, lsr lr
  c8:	20554e47 	subscs	r4, r5, r7, asr #28
  cc:	20393943 	eorscs	r3, r9, r3, asr #18
  d0:	2e322e39 	mrccs	14, 1, r2, cr2, cr9, {1}
  d4:	30322031 	eorscc	r2, r2, r1, lsr r0
  d8:	30313931 	eorscc	r3, r1, r1, lsr r9
  dc:	28203532 	stmdacs	r0!, {r1, r4, r5, r8, sl, ip, sp}
  e0:	656c6572 	strbvs	r6, [ip, #-1394]!	; 0xfffffa8e
  e4:	29657361 	stmdbcs	r5!, {r0, r5, r6, r8, r9, ip, sp, lr}^
  e8:	52415b20 	subpl	r5, r1, #32, 22	; 0x8000
  ec:	72612f4d 	rsbvc	r2, r1, #308	; 0x134
  f0:	2d392d6d 	ldccs	13, cr2, [r9, #-436]!	; 0xfffffe4c
  f4:	6e617262 	cdpvs	2, 6, cr7, cr1, cr2, {3}
  f8:	72206863 	eorvc	r6, r0, #6488064	; 0x630000
  fc:	73697665 	cmnvc	r9, #105906176	; 0x6500000
 100:	206e6f69 	rsbcs	r6, lr, r9, ror #30
 104:	35373732 	ldrcc	r3, [r7, #-1842]!	; 0xfffff8ce
 108:	205d3939 	subscs	r3, sp, r9, lsr r9
 10c:	68746d2d 	ldmdavs	r4!, {r0, r2, r3, r5, r8, sl, fp, sp, lr}^
 110:	20626d75 	rsbcs	r6, r2, r5, ror sp
 114:	6c666d2d 	stclvs	13, cr6, [r6], #-180	; 0xffffff4c
 118:	2d74616f 	ldfcse	f6, [r4, #-444]!	; 0xfffffe44
 11c:	3d696261 	sfmcc	f6, 2, [r9, #-388]!	; 0xfffffe7c
 120:	74666f73 	strbtvc	r6, [r6], #-3955	; 0xfffff08d
 124:	616d2d20 	cmnvs	sp, r0, lsr #26
 128:	3d686372 	stclcc	3, cr6, [r8, #-456]!	; 0xfffffe38
 12c:	766d7261 	strbtvc	r7, [sp], -r1, ror #4
 130:	206d2d36 	rsbcs	r2, sp, r6, lsr sp
 134:	2d20672d 	stccs	7, cr6, [r0, #-180]!	; 0xffffff4c
 138:	2d20304f 	stccs	0, cr3, [r0, #-316]!	; 0xfffffec4
 13c:	3d647473 	cfstrdcc	mvd7, [r4, #-460]!	; 0xfffffe34
 140:	00393963 	eorseq	r3, r9, r3, ror #18
 144:	616c6564 	cmnvs	ip, r4, ror #10
 148:	696d5f79 	stmdbvs	sp!, {r0, r3, r4, r5, r6, r8, r9, sl, fp, ip, lr}^
 14c:	00696c6c 	rsbeq	r6, r9, ip, ror #24
 150:	726f6873 	rsbvc	r6, pc, #7536640	; 0x730000
 154:	6e692074 	mcrvs	0, 3, r2, cr9, cr4, {3}
 158:	65640074 	strbvs	r0, [r4, #-116]!	; 0xffffff8c
 15c:	5f79616c 	svcpl	0x0079616c
 160:	7263696d 	rsbvc	r6, r3, #1785856	; 0x1b4000
 164:	7361006f 	cmnvc	r1, #111	; 0x6f
 168:	5f696963 	svcpl	0x00696963
 16c:	74697277 	strbtvc	r7, [r9], #-631	; 0xfffffd89
 170:	6f635f65 	svcvs	0x00635f65
 174:	6f72746e 	svcvs	0x0072746e
 178:	72656c6c 	rsbvc	r6, r5, #108, 24	; 0x6c00
 17c:	6c6f6300 	stclvs	3, cr6, [pc], #-0	; 184 <startup-0x1ffffe7c>
 180:	006e6d75 	rsbeq	r6, lr, r5, ror sp
 184:	74697277 	strbtvc	r7, [r9], #-631	; 0xfffffd89
 188:	73615f65 	cmnvc	r1, #404	; 0x194
 18c:	00696963 	rsbeq	r6, r9, r3, ror #18
 190:	72727362 	rsbsvc	r7, r2, #-2013265919	; 0x88000001
 194:	63736100 	cmnvs	r3, #0, 2
 198:	695f6969 	ldmdbvs	pc, {r0, r3, r5, r6, r8, fp, sp, lr}^	; <UNPREDICTABLE>
 19c:	0074696e 	rsbseq	r6, r4, lr, ror #18
 1a0:	7079746f 	rsbsvc	r7, r9, pc, ror #8
 1a4:	6f007265 	svcvs	0x00007265
 1a8:	69487264 	stmdbvs	r8, {r2, r5, r6, r9, ip, sp, lr}^
 1ac:	61006867 	tstvs	r0, r7, ror #16
 1b0:	69696373 	stmdbvs	r9!, {r0, r1, r4, r5, r6, r8, r9, sp, lr}^
 1b4:	6165725f 	cmnvs	r5, pc, asr r2
 1b8:	74735f64 	ldrbtvc	r5, [r3], #-3940	; 0xfffff09c
 1bc:	73757461 	cmnvc	r5, #1627389952	; 0x61000000
 1c0:	6e696c00 	cdpvs	12, 6, cr6, cr9, cr0, {0}
 1c4:	50003165 	andpl	r3, r0, r5, ror #2
 1c8:	4f495047 	svcmi	0x00495047
 1cc:	72666100 	rsbvc	r6, r6, #0, 2
 1d0:	66610068 	strbtvs	r0, [r1], -r8, rrx
 1d4:	6c006c72 	stcvs	12, cr6, [r0], {114}	; 0x72
 1d8:	32656e69 	rsbcc	r6, r5, #1680	; 0x690
 1dc:	63736100 	cmnvs	r3, #0, 2
 1e0:	725f6969 	subsvc	r6, pc, #1720320	; 0x1a4000
 1e4:	5f646165 	svcpl	0x00646165
 1e8:	746e6f63 	strbtvc	r6, [lr], #-3939	; 0xfffff09d
 1ec:	6c6c6f72 	stclvs	15, cr6, [ip], #-456	; 0xfffffe38
 1f0:	61007265 	tstvs	r0, r5, ror #4
 1f4:	69696373 	stmdbvs	r9!, {r0, r1, r4, r5, r6, r8, r9, sp, lr}^
 1f8:	7274635f 	rsbsvc	r6, r4, #2080374785	; 0x7c000001
 1fc:	69625f6c 	stmdbvs	r2!, {r2, r3, r5, r6, r8, r9, sl, fp, ip, lr}^
 200:	65735f74 	ldrbvs	r5, [r3, #-3956]!	; 0xfffff08c
 204:	73610074 	cmnvc	r1, #116	; 0x74
 208:	5f696963 	svcpl	0x00696963
 20c:	74697277 	strbtvc	r7, [r9], #-631	; 0xfffffd89
 210:	6d635f65 	stclvs	15, cr5, [r3, #-404]!	; 0xfffffe6c
 214:	75700064 	ldrbvc	r0, [r0, #-100]!	; 0xffffff9c
 218:	00726470 	rsbseq	r6, r2, r0, ror r4
 21c:	65736552 	ldrbvs	r6, [r3, #-1362]!	; 0xfffffaae
 220:	64657672 	strbtvs	r7, [r5], #-1650	; 0xfffff98e
 224:	65520030 	ldrbvs	r0, [r2, #-48]	; 0xffffffd0
 228:	76726573 			; <UNDEFINED> instruction: 0x76726573
 22c:	00316465 	eorseq	r6, r1, r5, ror #8
 230:	65736552 	ldrbvs	r6, [r3, #-1362]!	; 0xfffffaae
 234:	64657672 	strbtvs	r7, [r5], #-1650	; 0xfffff98e
 238:	65520032 	ldrbvs	r0, [r2, #-50]	; 0xffffffce
 23c:	76726573 			; <UNDEFINED> instruction: 0x76726573
 240:	00336465 	eorseq	r6, r3, r5, ror #8
 244:	4c72646f 	cfldrdmi	mvd6, [r2], #-444	; 0xfffffe44
 248:	6100776f 	tstvs	r0, pc, ror #14
 24c:	69696373 	stmdbvs	r9!, {r0, r1, r4, r5, r6, r8, r9, sp, lr}^
 250:	6972775f 	ldmdbvs	r2!, {r0, r1, r2, r3, r4, r6, r8, r9, sl, ip, sp, lr}^
 254:	645f6574 	ldrbvs	r6, [pc], #-1396	; 25c <startup-0x1ffffda4>
 258:	00617461 	rsbeq	r7, r1, r1, ror #8
 25c:	69637361 	stmdbvs	r3!, {r0, r5, r6, r8, r9, ip, sp, lr}^
 260:	6f635f69 	svcvs	0x00635f69
 264:	6e616d6d 	cdpvs	13, 6, cr6, cr1, cr13, {3}
 268:	64690064 	strbtvs	r0, [r9], #-100	; 0xffffff9c
 26c:	67694872 			; <UNDEFINED> instruction: 0x67694872
 270:	736f0068 	cmnvc	pc, #104	; 0x68
 274:	64656570 	strbtvs	r6, [r5], #-1392	; 0xfffffa90
 278:	73610072 	cmnvc	r1, #114	; 0x72
 27c:	5f696963 	svcpl	0x00696963
 280:	78746f67 	ldmdavc	r4!, {r0, r1, r2, r5, r6, r8, r9, sl, fp, sp, lr}^
 284:	64690079 	strbtvs	r0, [r9], #-121	; 0xffffff87
 288:	776f4c72 			; <UNDEFINED> instruction: 0x776f4c72
 28c:	63736100 	cmnvs	r3, #0, 2
 290:	635f6969 	cmpvs	pc, #1720320	; 0x1a4000
 294:	5f6c7274 	svcpl	0x006c7274
 298:	5f746962 	svcpl	0x00746962
 29c:	61656c63 	cmnvs	r5, r3, ror #24
 2a0:	73610072 	cmnvc	r1, #114	; 0x72
 2a4:	5f696963 	svcpl	0x00696963
 2a8:	64616572 	strbtvs	r6, [r1], #-1394	; 0xfffffa8e
 2ac:	7461645f 	strbtvc	r6, [r1], #-1119	; 0xfffffba1
 2b0:	3a430061 	bcc	10c043c <startup-0x1ef3fbc4>
 2b4:	6573552f 	ldrbvs	r5, [r3, #-1327]!	; 0xfffffad1
 2b8:	682f7372 	stmdavs	pc!, {r1, r4, r5, r6, r8, r9, ip, sp, lr}	; <UNPREDICTABLE>
 2bc:	79726e65 	ldmdbvc	r2!, {r0, r2, r5, r6, r9, sl, fp, sp, lr}^
 2c0:	656e4f2f 	strbvs	r4, [lr, #-3887]!	; 0xfffff0d1
 2c4:	76697244 	strbtvc	r7, [r9], -r4, asr #4
 2c8:	6b532f65 	blvs	14cc064 <startup-0x1eb33f9c>
 2cc:	62766972 	rsbsvs	r6, r6, #1867776	; 0x1c8000
 2d0:	2f64726f 	svccs	0x0064726f
 2d4:	31325456 	teqcc	r2, r6, asr r4
 2d8:	504f4d2f 	subpl	r4, pc, pc, lsr #26
 2dc:	504f4d2f 	subpl	r4, pc, pc, lsr #26
 2e0:	504f4d2f 	subpl	r4, pc, pc, lsr #26
 2e4:	616e732f 	cmnvs	lr, pc, lsr #6
 2e8:	612f656b 			; <UNDEFINED> instruction: 0x612f656b
 2ec:	69696373 	stmdbvs	r9!, {r0, r1, r4, r5, r6, r8, r9, sp, lr}^
 2f0:	7369645f 	cmnvc	r9, #1593835520	; 0x5f000000
 2f4:	79616c70 	stmdbvc	r1!, {r4, r5, r6, sl, fp, sp, lr}^
 2f8:	6d00632e 	stcvs	3, cr6, [r0, #-184]	; 0xffffff48
 2fc:	7265646f 	rsbvc	r6, r5, #1862270976	; 0x6f000000
 300:	6b636c00 	blvs	18db308 <startup-0x1e724cf8>
 304:	73610072 	cmnvc	r1, #114	; 0x72
 308:	5f696963 	svcpl	0x00696963
 30c:	74697277 	strbtvc	r7, [r9], #-631	; 0xfffffd89
 310:	68635f65 	stmdavs	r3!, {r0, r2, r5, r6, r8, r9, sl, fp, ip, lr}^
 314:	50007261 	andpl	r7, r0, r1, ror #4
 318:	4d4f4547 	cfstr64mi	mvdx4, [pc, #-284]	; 204 <startup-0x1ffffdfc>
 31c:	59525445 	ldmdbpl	r2, {r0, r2, r6, sl, ip, lr}^
 320:	766f6d00 	strbtvc	r6, [pc], -r0, lsl #26
 324:	70615f65 	rsbvc	r5, r1, r5, ror #30
 328:	00656c70 	rsbeq	r6, r5, r0, ror ip
 32c:	77617264 	strbvc	r7, [r1, -r4, ror #4]!
 330:	6a626f5f 	bvs	189c0b4 <startup-0x1e763f4c>
 334:	00746365 	rsbseq	r6, r4, r5, ror #6
 338:	65766f6d 	ldrbvs	r6, [r6, #-3949]!	; 0xfffff093
 33c:	72696400 	rsbvc	r6, r9, #0, 8
 340:	69640078 	stmdbvs	r4!, {r3, r4, r5, r6}^
 344:	6f007972 	svcvs	0x00007972
 348:	63656a62 	cmnvs	r5, #401408	; 0x62000
 34c:	6f635f74 	svcvs	0x00635f74
 350:	64696c6c 	strbtvs	r6, [r9], #-3180	; 0xfffff394
 354:	6d007365 	stcvs	3, cr7, [r0, #-404]	; 0xfffffe6c
 358:	5f65766f 	svcpl	0x0065766f
 35c:	6b616e73 	blvs	185bd30 <startup-0x1e7a42d0>
 360:	4f500065 	svcmi	0x00500065
 364:	00544e49 	subseq	r4, r4, r9, asr #28
 368:	6c707061 	ldclvs	0, cr7, [r0], #-388	; 0xfffffe7c
 36c:	73004f65 	movwvc	r4, #3941	; 0xf65
 370:	735f7465 	cmpvc	pc, #1694498816	; 0x65000000
 374:	64656570 	strbtvs	r6, [r5], #-1392	; 0xfffffa90
 378:	736f7000 	cmnvc	pc, #0
 37c:	6f700078 	svcvs	0x00700078
 380:	6d007973 	vstrvs.16	s14, [r0, #-230]	; 0xffffff1a	; <UNPREDICTABLE>
 384:	5f65766f 	svcpl	0x0065766f
 388:	6f5f316f 	svcvs	0x005f316f
 38c:	756e0032 	strbvc	r0, [lr, #-50]!	; 0xffffffce
 390:	7869706d 	stmdavc	r9!, {r0, r2, r3, r5, r6, ip, sp, lr}^
 394:	00736c65 	rsbseq	r6, r3, r5, ror #24
 398:	61657263 	cmnvs	r5, r3, ror #4
 39c:	745f6574 	ldrbvc	r6, [pc], #-1396	; 3a4 <startup-0x1ffffc5c>
 3a0:	006c6961 	rsbeq	r6, ip, r1, ror #18
 3a4:	6e69616d 	powvsez	f6, f1, #5.0
 3a8:	6f6d6100 	svcvs	0x006d6100
 3ac:	00746e75 	rsbseq	r6, r4, r5, ror lr
 3b0:	70617267 	rsbvc	r7, r1, r7, ror #4
 3b4:	5f636968 	svcpl	0x00636968
 3b8:	65786970 	ldrbvs	r6, [r8, #-2416]!	; 0xfffff690
 3bc:	65735f6c 	ldrbvs	r5, [r3, #-3948]!	; 0xfffff094
 3c0:	61740074 	cmnvs	r4, r4, ror r0
 3c4:	675f6c69 	ldrbvs	r6, [pc, -r9, ror #24]
 3c8:	656d6f65 	strbvs	r6, [sp, #-3941]!	; 0xfffff09b
 3cc:	00797274 	rsbseq	r7, r9, r4, ror r2
 3d0:	74696e69 	strbtvc	r6, [r9], #-3689	; 0xfffff197
 3d4:	7070615f 	rsbsvc	r6, r0, pc, asr r1
 3d8:	7a697300 	bvc	1a5cfe0 <startup-0x1e5a3020>
 3dc:	73007865 	movwvc	r7, #2149	; 0x865
 3e0:	79657a69 	stmdbvc	r5!, {r0, r3, r5, r6, r9, fp, ip, sp, lr}^
 3e4:	61747300 	cmnvs	r4, r0, lsl #6
 3e8:	70757472 	rsbsvc	r7, r5, r2, ror r4
 3ec:	61726400 	cmnvs	r2, r0, lsl #8
 3f0:	3a430077 	bcc	10c05d4 <startup-0x1ef3fa2c>
 3f4:	6573552f 	ldrbvs	r5, [r3, #-1327]!	; 0xfffffad1
 3f8:	682f7372 	stmdavs	pc!, {r1, r4, r5, r6, r8, r9, ip, sp, lr}	; <UNPREDICTABLE>
 3fc:	79726e65 	ldmdbvc	r2!, {r0, r2, r5, r6, r9, sl, fp, sp, lr}^
 400:	656e4f2f 	strbvs	r4, [lr, #-3887]!	; 0xfffff0d1
 404:	76697244 	strbtvc	r7, [r9], -r4, asr #4
 408:	6b532f65 	blvs	14cc1a4 <startup-0x1eb33e5c>
 40c:	62766972 	rsbsvs	r6, r6, #1867776	; 0x1c8000
 410:	2f64726f 	svccs	0x0064726f
 414:	31325456 	teqcc	r2, r6, asr r4
 418:	504f4d2f 	subpl	r4, pc, pc, lsr #26
 41c:	504f4d2f 	subpl	r4, pc, pc, lsr #26
 420:	504f4d2f 	subpl	r4, pc, pc, lsr #26
 424:	616e732f 	cmnvs	lr, pc, lsr #6
 428:	672f656b 	strvs	r6, [pc, -fp, ror #10]!
 42c:	2e656d61 	cdpcs	13, 6, cr6, cr5, cr1, {3}
 430:	61670063 	cmnvs	r7, r3, rrx
 434:	6f5f656d 	svcvs	0x005f656d
 438:	00726576 	rsbseq	r6, r2, r6, ror r5
 43c:	70617267 	rsbvc	r7, r1, r7, ror #4
 440:	5f636968 	svcpl	0x00636968
 444:	74696e69 	strbtvc	r6, [r9], #-3689	; 0xfffff197
 448:	7a696c61 	bvc	1a5b5d4 <startup-0x1e5a4a2c>
 44c:	72640065 	rsbvc	r0, r4, #101	; 0x65
 450:	6f5f7761 	svcvs	0x005f7761
 454:	72616a62 	rsbvc	r6, r1, #401408	; 0x62000
 458:	65730072 	ldrbvs	r0, [r3, #-114]!	; 0xffffff8e
 45c:	626f5f74 	rsbvs	r5, pc, #116, 30	; 0x1d0
 460:	7463656a 	strbtvc	r6, [r3], #-1386	; 0xfffffa96
 464:	6570735f 	ldrbvs	r7, [r0, #-863]!	; 0xfffffca1
 468:	73006465 	movwvc	r6, #1125	; 0x465
 46c:	656b616e 	strbvs	r6, [fp, #-366]!	; 0xfffffe92
 470:	6961745f 	stmdbvs	r1!, {r0, r1, r2, r3, r4, r6, sl, ip, sp, lr}^
 474:	7267006c 	rsbvc	r0, r7, #108	; 0x6c
 478:	69687061 	stmdbvs	r8!, {r0, r5, r6, ip, sp, lr}^
 47c:	6c635f63 	stclvs	15, cr5, [r3], #-396	; 0xfffffe74
 480:	5f726165 	svcpl	0x00726165
 484:	65726373 	ldrbvs	r6, [r2, #-883]!	; 0xfffffc8d
 488:	61006e65 	tstvs	r0, r5, ror #28
 48c:	656c7070 	strbvs	r7, [ip, #-112]!	; 0xffffff90
 490:	6f65675f 	svcvs	0x0065675f
 494:	7274656d 	rsbsvc	r6, r4, #457179136	; 0x1b400000
 498:	6c630079 	stclvs	0, cr0, [r3], #-484	; 0xfffffe1c
 49c:	5f726165 	svcpl	0x00726165
 4a0:	656a626f 	strbvs	r6, [sl, #-623]!	; 0xfffffd91
 4a4:	73007463 	movwvc	r7, #1123	; 0x463
 4a8:	656b616e 	strbvs	r6, [fp, #-366]!	; 0xfffffe92
 4ac:	6f65675f 	svcvs	0x0065675f
 4b0:	7274656d 	rsbsvc	r6, r4, #457179136	; 0x1b400000
 4b4:	4f740079 	svcmi	0x00740079
 4b8:	73006a62 	movwvc	r6, #2658	; 0xa62
 4bc:	656b616e 	strbvs	r6, [fp, #-366]!	; 0xfffffe92
 4c0:	756e004f 	strbvc	r0, [lr, #-79]!	; 0xffffffb1
 4c4:	696f706d 	stmdbvs	pc!, {r0, r2, r3, r5, r6, ip, sp, lr}^	; <UNPREDICTABLE>
 4c8:	0073746e 	rsbseq	r7, r3, lr, ror #8
 4cc:	70617267 	rsbvc	r7, r1, r7, ror #4
 4d0:	5f636968 	svcpl	0x00636968
 4d4:	65786970 	ldrbvs	r6, [r8, #-2416]!	; 0xfffff690
 4d8:	6c635f6c 	stclvs	15, cr5, [r3], #-432	; 0xfffffe50
 4dc:	00726165 	rsbseq	r6, r2, r5, ror #2
 4e0:	4a424f50 	bmi	1094228 <startup-0x1ef6bdd8>
 4e4:	00544345 	subseq	r4, r4, r5, asr #6
 4e8:	6b616e73 	blvs	185bebc <startup-0x1e7a4144>
 4ec:	65685f65 	strbvs	r5, [r8, #-3941]!	; 0xfffff09b
 4f0:	61006461 	tstvs	r0, r1, ror #8
 4f4:	76697463 	strbtvc	r7, [r9], -r3, ror #8
 4f8:	52657461 	rsbpl	r7, r5, #1627389952	; 0x61000000
 4fc:	4300776f 	movwmi	r7, #1903	; 0x76f
 500:	73552f3a 	cmpvc	r5, #58, 30	; 0xe8
 504:	2f737265 	svccs	0x00737265
 508:	726e6568 	rsbvc	r6, lr, #104, 10	; 0x1a000000
 50c:	6e4f2f79 	mcrvs	15, 2, r2, cr15, cr9, {3}
 510:	69724465 	ldmdbvs	r2!, {r0, r2, r5, r6, sl, lr}^
 514:	532f6576 			; <UNDEFINED> instruction: 0x532f6576
 518:	7669726b 	strbtvc	r7, [r9], -fp, ror #4
 51c:	64726f62 	ldrbtvs	r6, [r2], #-3938	; 0xfffff09e
 520:	3254562f 	subscc	r5, r4, #49283072	; 0x2f00000
 524:	4f4d2f31 	svcmi	0x004d2f31
 528:	4f4d2f50 	svcmi	0x004d2f50
 52c:	4f4d2f50 	svcmi	0x004d2f50
 530:	6e732f50 	mrcvs	15, 3, r2, cr3, cr0, {2}
 534:	2f656b61 	svccs	0x00656b61
 538:	7079656b 	rsbsvc	r6, r9, fp, ror #10
 53c:	632e6461 			; <UNDEFINED> instruction: 0x632e6461
 540:	79656b00 	stmdbvc	r5!, {r8, r9, fp, sp, lr}^
 544:	65720062 	ldrbvs	r0, [r2, #-98]!	; 0xffffff9e
 548:	6f436461 	svcvs	0x00436461
 54c:	6e69006c 	cdpvs	0, 6, cr0, cr9, cr12, {3}
 550:	6b5f7469 	blvs	17dd6fc <startup-0x1e822904>
 554:	61707965 	cmnvs	r0, r5, ror #18
 558:	6e690064 	cdpvs	0, 6, cr0, cr9, cr4, {3}
 55c:	615f7469 	cmpvs	pc, r9, ror #8
 560:	69696373 	stmdbvs	r9!, {r0, r1, r4, r5, r6, r8, r9, sp, lr}^
 564:	2f3a4300 	svccs	0x003a4300
 568:	72657355 	rsbvc	r7, r5, #1409286145	; 0x54000001
 56c:	65682f73 	strbvs	r2, [r8, #-3955]!	; 0xfffff08d
 570:	2f79726e 	svccs	0x0079726e
 574:	44656e4f 	strbtmi	r6, [r5], #-3663	; 0xfffff1b1
 578:	65766972 	ldrbvs	r6, [r6, #-2418]!	; 0xfffff68e
 57c:	726b532f 	rsbvc	r5, fp, #-1140850688	; 0xbc000000
 580:	6f627669 	svcvs	0x00627669
 584:	562f6472 			; <UNDEFINED> instruction: 0x562f6472
 588:	2f313254 	svccs	0x00313254
 58c:	2f504f4d 	svccs	0x00504f4d
 590:	2f504f4d 	svccs	0x00504f4d
 594:	2f504f4d 	svccs	0x00504f4d
 598:	6b616e73 	blvs	185bf6c <startup-0x1e7a4094>
 59c:	6e692f65 	cdpvs	15, 6, cr2, cr9, cr5, {3}
 5a0:	632e7469 			; <UNDEFINED> instruction: 0x632e7469
 5a4:	696e6900 	stmdbvs	lr!, {r8, fp, sp, lr}^
 5a8:	69745f74 	ldmdbvs	r4!, {r2, r4, r5, r6, r8, r9, sl, fp, ip, lr}^
 5ac:	3672656d 	ldrbtcc	r6, [r2], -sp, ror #10
	...

Disassembly of section .comment:

00000000 <.comment>:
   0:	3a434347 	bcc	10d0d24 <startup-0x1ef2f2dc>
   4:	4e472820 	cdpmi	8, 4, cr2, cr7, cr0, {1}
   8:	6f542055 	svcvs	0x00542055
   c:	20736c6f 	rsbscs	r6, r3, pc, ror #24
  10:	20726f66 	rsbscs	r6, r2, r6, ror #30
  14:	206d7241 	rsbcs	r7, sp, r1, asr #4
  18:	65626d45 	strbvs	r6, [r2, #-3397]!	; 0xfffff2bb
  1c:	64656464 	strbtvs	r6, [r5], #-1124	; 0xfffffb9c
  20:	6f725020 	svcvs	0x00725020
  24:	73736563 	cmnvc	r3, #415236096	; 0x18c00000
  28:	2073726f 	rsbscs	r7, r3, pc, ror #4
  2c:	30322d39 	eorscc	r2, r2, r9, lsr sp
  30:	712d3931 			; <UNDEFINED> instruction: 0x712d3931
  34:	616d2d34 	cmnvs	sp, r4, lsr sp
  38:	29726f6a 	ldmdbcs	r2!, {r1, r3, r5, r6, r8, r9, sl, fp, sp, lr}^
  3c:	322e3920 	eorcc	r3, lr, #32, 18	; 0x80000
  40:	3220312e 	eorcc	r3, r0, #-2147483637	; 0x8000000b
  44:	31393130 	teqcc	r9, r0, lsr r1
  48:	20353230 	eorscs	r3, r5, r0, lsr r2
  4c:	6c657228 	sfmvs	f7, 2, [r5], #-160	; 0xffffff60
  50:	65736165 	ldrbvs	r6, [r3, #-357]!	; 0xfffffe9b
  54:	415b2029 	cmpmi	fp, r9, lsr #32
  58:	612f4d52 			; <UNDEFINED> instruction: 0x612f4d52
  5c:	392d6d72 	pushcc	{r1, r4, r5, r6, r8, sl, fp, sp, lr}
  60:	6172622d 	cmnvs	r2, sp, lsr #4
  64:	2068636e 	rsbcs	r6, r8, lr, ror #6
  68:	69766572 	ldmdbvs	r6!, {r1, r4, r5, r6, r8, sl, sp, lr}^
  6c:	6e6f6973 			; <UNDEFINED> instruction: 0x6e6f6973
  70:	37373220 	ldrcc	r3, [r7, -r0, lsr #4]!
  74:	5d393935 			; <UNDEFINED> instruction: 0x5d393935
	...

Disassembly of section .ARM.attributes:

00000000 <.ARM.attributes>:
   0:	00002b41 	andeq	r2, r0, r1, asr #22
   4:	61656100 	cmnvs	r5, r0, lsl #2
   8:	01006962 	tsteq	r0, r2, ror #18
   c:	00000021 	andeq	r0, r0, r1, lsr #32
  10:	2d533605 	ldclcs	6, cr3, [r3, #-20]	; 0xffffffec
  14:	0c06004d 	stceq	0, cr0, [r6], {77}	; 0x4d
  18:	01094d07 	tsteq	r9, r7, lsl #26
  1c:	01140412 	tsteq	r4, r2, lsl r4
  20:	03170115 	tsteq	r7, #1073741829	; 0x40000005
  24:	01190118 	tsteq	r9, r8, lsl r1
  28:	061e011a 			; <UNDEFINED> instruction: 0x061e011a

Disassembly of section .debug_frame:

00000000 <.debug_frame>:
   0:	0000000c 	andeq	r0, r0, ip
   4:	ffffffff 			; <UNDEFINED> instruction: 0xffffffff
   8:	7c020001 	stcvc	0, cr0, [r2], {1}
   c:	000d0c0e 	andeq	r0, sp, lr, lsl #24
  10:	00000018 	andeq	r0, r0, r8, lsl r0
  14:	00000000 	andeq	r0, r0, r0
  18:	20000010 	andcs	r0, r0, r0, lsl r0
  1c:	00000044 	andeq	r0, r0, r4, asr #32
  20:	87080e41 	strhi	r0, [r8, -r1, asr #28]
  24:	41018e02 	tstmi	r1, r2, lsl #28
  28:	0000070d 	andeq	r0, r0, sp, lsl #14
  2c:	0000001c 	andeq	r0, r0, ip, lsl r0
  30:	00000000 	andeq	r0, r0, r0
  34:	20000054 	andcs	r0, r0, r4, asr r0
  38:	0000004c 	andeq	r0, r0, ip, asr #32
  3c:	87080e41 	strhi	r0, [r8, -r1, asr #28]
  40:	41018e02 	tstmi	r1, r2, lsl #28
  44:	0d41180e 	stcleq	8, cr1, [r1, #-56]	; 0xffffffc8
  48:	00000007 	andeq	r0, r0, r7
  4c:	0000001c 	andeq	r0, r0, ip, lsl r0
  50:	00000000 	andeq	r0, r0, r0
  54:	200000a0 	andcs	r0, r0, r0, lsr #1
  58:	00000026 	andeq	r0, r0, r6, lsr #32
  5c:	87080e41 	strhi	r0, [r8, -r1, asr #28]
  60:	41018e02 	tstmi	r1, r2, lsl #28
  64:	0d41100e 	stcleq	0, cr1, [r1, #-56]	; 0xffffffc8
  68:	00000007 	andeq	r0, r0, r7
  6c:	0000001c 	andeq	r0, r0, ip, lsl r0
  70:	00000000 	andeq	r0, r0, r0
  74:	200000c6 	andcs	r0, r0, r6, asr #1
  78:	0000004e 	andeq	r0, r0, lr, asr #32
  7c:	87080e41 	strhi	r0, [r8, -r1, asr #28]
  80:	41018e02 	tstmi	r1, r2, lsl #28
  84:	0d41180e 	stcleq	8, cr1, [r1, #-56]	; 0xffffffc8
  88:	00000007 	andeq	r0, r0, r7
  8c:	0000000c 	andeq	r0, r0, ip
  90:	ffffffff 			; <UNDEFINED> instruction: 0xffffffff
  94:	7c020001 	stcvc	0, cr0, [r2], {1}
  98:	000d0c0e 	andeq	r0, sp, lr, lsl #24
  9c:	0000001c 	andeq	r0, r0, ip, lsl r0
  a0:	0000008c 	andeq	r0, r0, ip, lsl #1
  a4:	20000114 	andcs	r0, r0, r4, lsl r1
  a8:	00000038 	andeq	r0, r0, r8, lsr r0
  ac:	87080e41 	strhi	r0, [r8, -r1, asr #28]
  b0:	41018e02 	tstmi	r1, r2, lsl #28
  b4:	0d41180e 	stcleq	8, cr1, [r1, #-56]	; 0xffffffc8
  b8:	00000007 	andeq	r0, r0, r7
  bc:	0000001c 	andeq	r0, r0, ip, lsl r0
  c0:	0000008c 	andeq	r0, r0, ip, lsl #1
  c4:	2000014c 	andcs	r0, r0, ip, asr #2
  c8:	00000048 	andeq	r0, r0, r8, asr #32
  cc:	87080e41 	strhi	r0, [r8, -r1, asr #28]
  d0:	41018e02 	tstmi	r1, r2, lsl #28
  d4:	0d41180e 	stcleq	8, cr1, [r1, #-56]	; 0xffffffc8
  d8:	00000007 	andeq	r0, r0, r7
  dc:	0000001c 	andeq	r0, r0, ip, lsl r0
  e0:	0000008c 	andeq	r0, r0, ip, lsl #1
  e4:	20000194 	mulcs	r0, r4, r1
  e8:	00000030 	andeq	r0, r0, r0, lsr r0
  ec:	87080e41 	strhi	r0, [r8, -r1, asr #28]
  f0:	41018e02 	tstmi	r1, r2, lsl #28
  f4:	0d41100e 	stcleq	0, cr1, [r1, #-56]	; 0xffffffc8
  f8:	00000007 	andeq	r0, r0, r7
  fc:	0000001c 	andeq	r0, r0, ip, lsl r0
 100:	0000008c 	andeq	r0, r0, ip, lsl #1
 104:	200001c4 	andcs	r0, r0, r4, asr #3
 108:	0000002c 	andeq	r0, r0, ip, lsr #32
 10c:	87080e41 	strhi	r0, [r8, -r1, asr #28]
 110:	41018e02 	tstmi	r1, r2, lsl #28
 114:	0d41100e 	stcleq	0, cr1, [r1, #-56]	; 0xffffffc8
 118:	00000007 	andeq	r0, r0, r7
 11c:	0000001c 	andeq	r0, r0, ip, lsl r0
 120:	0000008c 	andeq	r0, r0, ip, lsl #1
 124:	200001f0 	strdcs	r0, [r0], -r0	; <UNPREDICTABLE>
 128:	0000002a 	andeq	r0, r0, sl, lsr #32
 12c:	87080e41 	strhi	r0, [r8, -r1, asr #28]
 130:	41018e02 	tstmi	r1, r2, lsl #28
 134:	0d41100e 	stcleq	0, cr1, [r1, #-56]	; 0xffffffc8
 138:	00000007 	andeq	r0, r0, r7
 13c:	0000001c 	andeq	r0, r0, ip, lsl r0
 140:	0000008c 	andeq	r0, r0, ip, lsl #1
 144:	2000021a 	andcs	r0, r0, sl, lsl r2
 148:	0000002a 	andeq	r0, r0, sl, lsr #32
 14c:	87080e41 	strhi	r0, [r8, -r1, asr #28]
 150:	41018e02 	tstmi	r1, r2, lsl #28
 154:	0d41100e 	stcleq	0, cr1, [r1, #-56]	; 0xffffffc8
 158:	00000007 	andeq	r0, r0, r7
 15c:	0000001c 	andeq	r0, r0, ip, lsl r0
 160:	0000008c 	andeq	r0, r0, ip, lsl #1
 164:	20000244 	andcs	r0, r0, r4, asr #4
 168:	00000040 	andeq	r0, r0, r0, asr #32
 16c:	840c0e41 	strhi	r0, [ip], #-3649	; 0xfffff1bf
 170:	8e028703 	cdphi	7, 0, cr8, cr2, cr3, {0}
 174:	180e4101 	stmdane	lr, {r0, r8, lr}
 178:	00070d41 	andeq	r0, r7, r1, asr #26
 17c:	0000001c 	andeq	r0, r0, ip, lsl r0
 180:	0000008c 	andeq	r0, r0, ip, lsl #1
 184:	20000284 	andcs	r0, r0, r4, lsl #5
 188:	00000048 	andeq	r0, r0, r8, asr #32
 18c:	840c0e41 	strhi	r0, [ip], #-3649	; 0xfffff1bf
 190:	8e028703 	cdphi	7, 0, cr8, cr2, cr3, {0}
 194:	180e4101 	stmdane	lr, {r0, r8, lr}
 198:	00070d41 	andeq	r0, r7, r1, asr #26
 19c:	0000001c 	andeq	r0, r0, ip, lsl r0
 1a0:	0000008c 	andeq	r0, r0, ip, lsl #1
 1a4:	200002cc 	andcs	r0, r0, ip, asr #5
 1a8:	00000036 	andeq	r0, r0, r6, lsr r0
 1ac:	87080e41 	strhi	r0, [r8, -r1, asr #28]
 1b0:	41018e02 	tstmi	r1, r2, lsl #28
 1b4:	0d41100e 	stcleq	0, cr1, [r1, #-56]	; 0xffffffc8
 1b8:	00000007 	andeq	r0, r0, r7
 1bc:	00000018 	andeq	r0, r0, r8, lsl r0
 1c0:	0000008c 	andeq	r0, r0, ip, lsl #1
 1c4:	20000302 	andcs	r0, r0, r2, lsl #6
 1c8:	0000003a 	andeq	r0, r0, sl, lsr r0
 1cc:	87080e41 	strhi	r0, [r8, -r1, asr #28]
 1d0:	41018e02 	tstmi	r1, r2, lsl #28
 1d4:	0000070d 	andeq	r0, r0, sp, lsl #14
 1d8:	0000001c 	andeq	r0, r0, ip, lsl r0
 1dc:	0000008c 	andeq	r0, r0, ip, lsl #1
 1e0:	2000033c 	andcs	r0, r0, ip, lsr r3
 1e4:	0000003c 	andeq	r0, r0, ip, lsr r0
 1e8:	87080e41 	strhi	r0, [r8, -r1, asr #28]
 1ec:	41018e02 	tstmi	r1, r2, lsl #28
 1f0:	0d41100e 	stcleq	0, cr1, [r1, #-56]	; 0xffffffc8
 1f4:	00000007 	andeq	r0, r0, r7
 1f8:	0000001c 	andeq	r0, r0, ip, lsl r0
 1fc:	0000008c 	andeq	r0, r0, ip, lsl #1
 200:	20000378 	andcs	r0, r0, r8, ror r3
 204:	0000004c 	andeq	r0, r0, ip, asr #32
 208:	87080e41 	strhi	r0, [r8, -r1, asr #28]
 20c:	41018e02 	tstmi	r1, r2, lsl #28
 210:	0d41180e 	stcleq	8, cr1, [r1, #-56]	; 0xffffffc8
 214:	00000007 	andeq	r0, r0, r7
 218:	0000001c 	andeq	r0, r0, ip, lsl r0
 21c:	0000008c 	andeq	r0, r0, ip, lsl #1
 220:	200003c4 	andcs	r0, r0, r4, asr #7
 224:	00000060 	andeq	r0, r0, r0, rrx
 228:	87080e41 	strhi	r0, [r8, -r1, asr #28]
 22c:	41018e02 	tstmi	r1, r2, lsl #28
 230:	0d41180e 	stcleq	8, cr1, [r1, #-56]	; 0xffffffc8
 234:	00000007 	andeq	r0, r0, r7
 238:	0000000c 	andeq	r0, r0, ip
 23c:	ffffffff 			; <UNDEFINED> instruction: 0xffffffff
 240:	7c020001 	stcvc	0, cr0, [r2], {1}
 244:	000d0c0e 	andeq	r0, sp, lr, lsl #24
 248:	0000000c 	andeq	r0, r0, ip
 24c:	00000238 	andeq	r0, r0, r8, lsr r2
 250:	20000000 	andcs	r0, r0, r0
 254:	0000000c 	andeq	r0, r0, ip
 258:	0000000c 	andeq	r0, r0, ip
 25c:	00000238 	andeq	r0, r0, r8, lsr r2
 260:	20000424 	andcs	r0, r0, r4, lsr #8
 264:	00000006 	andeq	r0, r0, r6
 268:	0000000c 	andeq	r0, r0, ip
 26c:	00000238 	andeq	r0, r0, r8, lsr r2
 270:	2000042a 	andcs	r0, r0, sl, lsr #8
 274:	00000006 	andeq	r0, r0, r6
 278:	0000000c 	andeq	r0, r0, ip
 27c:	00000238 	andeq	r0, r0, r8, lsr r2
 280:	20000430 	andcs	r0, r0, r0, lsr r4
 284:	00000006 	andeq	r0, r0, r6
 288:	0000000c 	andeq	r0, r0, ip
 28c:	00000238 	andeq	r0, r0, r8, lsr r2
 290:	20000436 	andcs	r0, r0, r6, lsr r4
 294:	00000006 	andeq	r0, r0, r6
 298:	0000001c 	andeq	r0, r0, ip, lsl r0
 29c:	00000238 	andeq	r0, r0, r8, lsr r2
 2a0:	2000043c 	andcs	r0, r0, ip, lsr r4
 2a4:	00000082 	andeq	r0, r0, r2, lsl #1
 2a8:	840c0e41 	strhi	r0, [ip], #-3649	; 0xfffff1bf
 2ac:	8e028703 	cdphi	7, 0, cr8, cr2, cr3, {0}
 2b0:	280e4101 	stmdacs	lr, {r0, r8, lr}
 2b4:	00070d41 	andeq	r0, r7, r1, asr #26
 2b8:	0000001c 	andeq	r0, r0, ip, lsl r0
 2bc:	00000238 	andeq	r0, r0, r8, lsr r2
 2c0:	200004be 			; <UNDEFINED> instruction: 0x200004be
 2c4:	00000082 	andeq	r0, r0, r2, lsl #1
 2c8:	840c0e41 	strhi	r0, [ip], #-3649	; 0xfffff1bf
 2cc:	8e028703 	cdphi	7, 0, cr8, cr2, cr3, {0}
 2d0:	280e4101 	stmdacs	lr, {r0, r8, lr}
 2d4:	00070d41 	andeq	r0, r7, r1, asr #26
 2d8:	0000001c 	andeq	r0, r0, ip, lsl r0
 2dc:	00000238 	andeq	r0, r0, r8, lsr r2
 2e0:	20000540 	andcs	r0, r0, r0, asr #10
 2e4:	00000020 	andeq	r0, r0, r0, lsr #32
 2e8:	87080e41 	strhi	r0, [r8, -r1, asr #28]
 2ec:	41018e02 	tstmi	r1, r2, lsl #28
 2f0:	0d41180e 	stcleq	8, cr1, [r1, #-56]	; 0xffffffc8
 2f4:	00000007 	andeq	r0, r0, r7
 2f8:	0000001c 	andeq	r0, r0, ip, lsl r0
 2fc:	00000238 	andeq	r0, r0, r8, lsr r2
 300:	20000560 	andcs	r0, r0, r0, ror #10
 304:	0000002c 	andeq	r0, r0, ip, lsr #32
 308:	87080e41 	strhi	r0, [r8, -r1, asr #28]
 30c:	41018e02 	tstmi	r1, r2, lsl #28
 310:	0d41100e 	stcleq	0, cr1, [r1, #-56]	; 0xffffffc8
 314:	00000007 	andeq	r0, r0, r7
 318:	0000001c 	andeq	r0, r0, ip, lsl r0
 31c:	00000238 	andeq	r0, r0, r8, lsr r2
 320:	2000058c 	andcs	r0, r0, ip, lsl #11
 324:	0000002c 	andeq	r0, r0, ip, lsr #32
 328:	87080e41 	strhi	r0, [r8, -r1, asr #28]
 32c:	41018e02 	tstmi	r1, r2, lsl #28
 330:	0d41100e 	stcleq	0, cr1, [r1, #-56]	; 0xffffffc8
 334:	00000007 	andeq	r0, r0, r7
 338:	0000001c 	andeq	r0, r0, ip, lsl r0
 33c:	00000238 	andeq	r0, r0, r8, lsr r2
 340:	200005b8 			; <UNDEFINED> instruction: 0x200005b8
 344:	00000070 	andeq	r0, r0, r0, ror r0
 348:	840c0e41 	strhi	r0, [ip], #-3649	; 0xfffff1bf
 34c:	8e028703 	cdphi	7, 0, cr8, cr2, cr3, {0}
 350:	480e4101 	stmdami	lr, {r0, r8, lr}
 354:	00070d41 	andeq	r0, r7, r1, asr #26
 358:	0000001c 	andeq	r0, r0, ip, lsl r0
 35c:	00000238 	andeq	r0, r0, r8, lsr r2
 360:	20000628 	andcs	r0, r0, r8, lsr #12
 364:	0000003e 	andeq	r0, r0, lr, lsr r0
 368:	87080e41 	strhi	r0, [r8, -r1, asr #28]
 36c:	41018e02 	tstmi	r1, r2, lsl #28
 370:	0d41180e 	stcleq	8, cr1, [r1, #-56]	; 0xffffffc8
 374:	00000007 	andeq	r0, r0, r7
 378:	00000024 	andeq	r0, r0, r4, lsr #32
 37c:	00000238 	andeq	r0, r0, r8, lsr r2
 380:	20000666 	andcs	r0, r0, r6, ror #12
 384:	0000009c 	muleq	r0, ip, r0
 388:	41100e41 	tstmi	r0, r1, asr #28
 38c:	0884200e 	stmeq	r4, {r1, r2, r3, sp}
 390:	06870785 	streq	r0, [r7], r5, lsl #15
 394:	0e42058e 	cdpeq	5, 4, cr0, cr2, cr14, {4}
 398:	41098824 	tstmi	r9, r4, lsr #16
 39c:	0000070d 	andeq	r0, r0, sp, lsl #14
 3a0:	0000001c 	andeq	r0, r0, ip, lsl r0
 3a4:	00000238 	andeq	r0, r0, r8, lsr r2
 3a8:	20000702 	andcs	r0, r0, r2, lsl #14
 3ac:	00000032 	andeq	r0, r0, r2, lsr r0
 3b0:	87080e41 	strhi	r0, [r8, -r1, asr #28]
 3b4:	41018e02 	tstmi	r1, r2, lsl #28
 3b8:	0d41100e 	stcleq	0, cr1, [r1, #-56]	; 0xffffffc8
 3bc:	00000007 	andeq	r0, r0, r7
 3c0:	0000001c 	andeq	r0, r0, ip, lsl r0
 3c4:	00000238 	andeq	r0, r0, r8, lsr r2
 3c8:	20000734 	andcs	r0, r0, r4, lsr r7
 3cc:	00000086 	andeq	r0, r0, r6, lsl #1
 3d0:	87080e41 	strhi	r0, [r8, -r1, asr #28]
 3d4:	41018e02 	tstmi	r1, r2, lsl #28
 3d8:	0d41200e 	stcleq	0, cr2, [r1, #-56]	; 0xffffffc8
 3dc:	00000007 	andeq	r0, r0, r7
 3e0:	00000024 	andeq	r0, r0, r4, lsr #32
 3e4:	00000238 	andeq	r0, r0, r8, lsr r2
 3e8:	200007ba 			; <UNDEFINED> instruction: 0x200007ba
 3ec:	00000332 	andeq	r0, r0, r2, lsr r3
 3f0:	84140e41 	ldrhi	r0, [r4], #-3649	; 0xfffff1bf
 3f4:	86048505 	strhi	r8, [r4], -r5, lsl #10
 3f8:	8e028703 	cdphi	7, 0, cr8, cr2, cr3, {0}
 3fc:	880e4201 	stmdahi	lr, {r0, r9, lr}
 400:	0c410191 	stfeqe	f0, [r1], {145}	; 0x91
 404:	0190d007 	orrseq	sp, r0, r7
 408:	0000000c 	andeq	r0, r0, ip
 40c:	ffffffff 			; <UNDEFINED> instruction: 0xffffffff
 410:	7c020001 	stcvc	0, cr0, [r2], {1}
 414:	000d0c0e 	andeq	r0, sp, lr, lsl #24
 418:	0000001c 	andeq	r0, r0, ip, lsl r0
 41c:	00000408 	andeq	r0, r0, r8, lsl #8
 420:	20000aec 	andcs	r0, r0, ip, ror #21
 424:	00000064 	andeq	r0, r0, r4, rrx
 428:	87080e41 	strhi	r0, [r8, -r1, asr #28]
 42c:	41018e02 	tstmi	r1, r2, lsl #28
 430:	0d41100e 	stcleq	0, cr1, [r1, #-56]	; 0xffffffc8
 434:	00000007 	andeq	r0, r0, r7
 438:	0000001c 	andeq	r0, r0, ip, lsl r0
 43c:	00000408 	andeq	r0, r0, r8, lsl #8
 440:	20000b50 	andcs	r0, r0, r0, asr fp
 444:	00000054 	andeq	r0, r0, r4, asr r0
 448:	87080e41 	strhi	r0, [r8, -r1, asr #28]
 44c:	41018e02 	tstmi	r1, r2, lsl #28
 450:	0d41100e 	stcleq	0, cr1, [r1, #-56]	; 0xffffffc8
 454:	00000007 	andeq	r0, r0, r7
 458:	0000001c 	andeq	r0, r0, ip, lsl r0
 45c:	00000408 	andeq	r0, r0, r8, lsl #8
 460:	20000ba4 	andcs	r0, r0, r4, lsr #23
 464:	00000068 	andeq	r0, r0, r8, rrx
 468:	840c0e41 	strhi	r0, [ip], #-3649	; 0xfffff1bf
 46c:	8e028703 	cdphi	7, 0, cr8, cr2, cr3, {0}
 470:	280e4101 	stmdacs	lr, {r0, r8, lr}
 474:	00070d41 	andeq	r0, r7, r1, asr #26
 478:	0000000c 	andeq	r0, r0, ip
 47c:	ffffffff 			; <UNDEFINED> instruction: 0xffffffff
 480:	7c020001 	stcvc	0, cr0, [r2], {1}
 484:	000d0c0e 	andeq	r0, sp, lr, lsl #24
 488:	00000018 	andeq	r0, r0, r8, lsl r0
 48c:	00000478 	andeq	r0, r0, r8, ror r4
 490:	20000c0c 	andcs	r0, r0, ip, lsl #24
 494:	0000002c 	andeq	r0, r0, ip, lsr #32
 498:	87080e41 	strhi	r0, [r8, -r1, asr #28]
 49c:	41018e02 	tstmi	r1, r2, lsl #28
 4a0:	0000070d 	andeq	r0, r0, sp, lsl #14
 4a4:	00000018 	andeq	r0, r0, r8, lsl r0
 4a8:	00000478 	andeq	r0, r0, r8, ror r4
 4ac:	20000c38 	andcs	r0, r0, r8, lsr ip
 4b0:	00000028 	andeq	r0, r0, r8, lsr #32
 4b4:	87080e41 	strhi	r0, [r8, -r1, asr #28]
 4b8:	41018e02 	tstmi	r1, r2, lsl #28
 4bc:	0000070d 	andeq	r0, r0, sp, lsl #14
 4c0:	00000018 	andeq	r0, r0, r8, lsl r0
 4c4:	00000478 	andeq	r0, r0, r8, ror r4
 4c8:	20000c60 	andcs	r0, r0, r0, ror #24
 4cc:	0000003c 	andeq	r0, r0, ip, lsr r0
 4d0:	87080e41 	strhi	r0, [r8, -r1, asr #28]
 4d4:	41018e02 	tstmi	r1, r2, lsl #28
 4d8:	0000070d 	andeq	r0, r0, sp, lsl #14
 4dc:	00000018 	andeq	r0, r0, r8, lsl r0
 4e0:	00000478 	andeq	r0, r0, r8, ror r4
 4e4:	20000c9c 	mulcs	r0, ip, ip
 4e8:	00000016 	andeq	r0, r0, r6, lsl r0
 4ec:	87080e41 	strhi	r0, [r8, -r1, asr #28]
 4f0:	41018e02 	tstmi	r1, r2, lsl #28
 4f4:	0000070d 	andeq	r0, r0, sp, lsl #14
 4f8:	0000000c 	andeq	r0, r0, ip
 4fc:	ffffffff 			; <UNDEFINED> instruction: 0xffffffff
 500:	7c010001 	stcvc	0, cr0, [r1], {1}
 504:	000d0c0e 	andeq	r0, sp, lr, lsl #24
 508:	0000000c 	andeq	r0, r0, ip
 50c:	000004f8 	strdeq	r0, [r0], -r8
 510:	20000cb5 			; <UNDEFINED> instruction: 0x20000cb5
 514:	0000010a 	andeq	r0, r0, sl, lsl #2
 518:	0000000c 	andeq	r0, r0, ip
 51c:	ffffffff 			; <UNDEFINED> instruction: 0xffffffff
 520:	7c010001 	stcvc	0, cr0, [r1], {1}
 524:	000d0c0e 	andeq	r0, sp, lr, lsl #24
 528:	0000000c 	andeq	r0, r0, ip
 52c:	00000518 	andeq	r0, r0, r8, lsl r5
 530:	20000dc9 	andcs	r0, r0, r9, asr #27
 534:	000001cc 	andeq	r0, r0, ip, asr #3

Disassembly of section .debug_ranges:

00000000 <.debug_ranges>:
   0:	20000424 	andcs	r0, r0, r4, lsr #8
   4:	20000aec 	andcs	r0, r0, ip, ror #21
   8:	20000000 	andcs	r0, r0, r0
   c:	2000000c 	andcs	r0, r0, ip
	...
