
Debug/snake:     file format elf32-littlearm


Disassembly of section .text:

20000000 <startup>:
 * STARTUP
 */
__attribute__((naked)) __attribute__((section (".start_section")) )
void startup ( void )
{
__asm__ volatile(" LDR R0,=0x2001C000\n");		/* set stack */
20000000:	4802      	ldr	r0, [pc, #8]	; (2000000c <startup+0xc>)
__asm__ volatile(" MOV SP,R0\n");
20000002:	4685      	mov	sp, r0
__asm__ volatile(" BL main\n");					/* call main */
20000004:	f000 fba8 	bl	20000758 <main>
__asm__ volatile(".L1: B .L1\n");				/* never return */
20000008:	e7fe      	b.n	20000008 <startup+0x8>
}
2000000a:	46c0      	nop			; (mov r8, r8)
2000000c:	2001c000 	andcs	ip, r1, r0

20000010 <delay_250ns>:
20000010:	b580      	push	{r7, lr}
20000012:	af00      	add	r7, sp, #0
20000014:	4b0c      	ldr	r3, [pc, #48]	; (20000048 <delay_250ns+0x38>)
20000016:	2200      	movs	r2, #0
20000018:	601a      	str	r2, [r3, #0]
2000001a:	4b0c      	ldr	r3, [pc, #48]	; (2000004c <delay_250ns+0x3c>)
2000001c:	2229      	movs	r2, #41	; 0x29
2000001e:	601a      	str	r2, [r3, #0]
20000020:	4b0b      	ldr	r3, [pc, #44]	; (20000050 <delay_250ns+0x40>)
20000022:	2200      	movs	r2, #0
20000024:	601a      	str	r2, [r3, #0]
20000026:	4b08      	ldr	r3, [pc, #32]	; (20000048 <delay_250ns+0x38>)
20000028:	2205      	movs	r2, #5
2000002a:	601a      	str	r2, [r3, #0]
2000002c:	46c0      	nop			; (mov r8, r8)
2000002e:	4b06      	ldr	r3, [pc, #24]	; (20000048 <delay_250ns+0x38>)
20000030:	681a      	ldr	r2, [r3, #0]
20000032:	2380      	movs	r3, #128	; 0x80
20000034:	025b      	lsls	r3, r3, #9
20000036:	4013      	ands	r3, r2
20000038:	d0f9      	beq.n	2000002e <delay_250ns+0x1e>
2000003a:	4b03      	ldr	r3, [pc, #12]	; (20000048 <delay_250ns+0x38>)
2000003c:	2200      	movs	r2, #0
2000003e:	601a      	str	r2, [r3, #0]
20000040:	46c0      	nop			; (mov r8, r8)
20000042:	46bd      	mov	sp, r7
20000044:	bd80      	pop	{r7, pc}
20000046:	46c0      	nop			; (mov r8, r8)
20000048:	e000e010 	and	lr, r0, r0, lsl r0
2000004c:	e000e014 	and	lr, r0, r4, lsl r0
20000050:	e000e018 	and	lr, r0, r8, lsl r0

20000054 <delay_micro>:
20000054:	b580      	push	{r7, lr}
20000056:	b084      	sub	sp, #16
20000058:	af00      	add	r7, sp, #0
2000005a:	6078      	str	r0, [r7, #4]
2000005c:	687b      	ldr	r3, [r7, #4]
2000005e:	22fa      	movs	r2, #250	; 0xfa
20000060:	0091      	lsls	r1, r2, #2
20000062:	0018      	movs	r0, r3
20000064:	f000 fce8 	bl	20000a38 <__udivsi3>
20000068:	0003      	movs	r3, r0
2000006a:	607b      	str	r3, [r7, #4]
2000006c:	687b      	ldr	r3, [r7, #4]
2000006e:	3301      	adds	r3, #1
20000070:	607b      	str	r3, [r7, #4]
20000072:	e00d      	b.n	20000090 <delay_micro+0x3c>
20000074:	2300      	movs	r3, #0
20000076:	60fb      	str	r3, [r7, #12]
20000078:	e004      	b.n	20000084 <delay_micro+0x30>
2000007a:	f7ff ffc9 	bl	20000010 <delay_250ns>
2000007e:	68fb      	ldr	r3, [r7, #12]
20000080:	3301      	adds	r3, #1
20000082:	60fb      	str	r3, [r7, #12]
20000084:	68fb      	ldr	r3, [r7, #12]
20000086:	2b03      	cmp	r3, #3
20000088:	ddf7      	ble.n	2000007a <delay_micro+0x26>
2000008a:	687b      	ldr	r3, [r7, #4]
2000008c:	3b01      	subs	r3, #1
2000008e:	607b      	str	r3, [r7, #4]
20000090:	687b      	ldr	r3, [r7, #4]
20000092:	2b00      	cmp	r3, #0
20000094:	d1ee      	bne.n	20000074 <delay_micro+0x20>
20000096:	46c0      	nop			; (mov r8, r8)
20000098:	46c0      	nop			; (mov r8, r8)
2000009a:	46bd      	mov	sp, r7
2000009c:	b004      	add	sp, #16
2000009e:	bd80      	pop	{r7, pc}

200000a0 <delay_milli>:
200000a0:	b580      	push	{r7, lr}
200000a2:	b082      	sub	sp, #8
200000a4:	af00      	add	r7, sp, #0
200000a6:	6078      	str	r0, [r7, #4]
200000a8:	e005      	b.n	200000b6 <delay_milli+0x16>
200000aa:	2064      	movs	r0, #100	; 0x64
200000ac:	f7ff ffd2 	bl	20000054 <delay_micro>
200000b0:	687b      	ldr	r3, [r7, #4]
200000b2:	3b01      	subs	r3, #1
200000b4:	607b      	str	r3, [r7, #4]
200000b6:	687b      	ldr	r3, [r7, #4]
200000b8:	2b00      	cmp	r3, #0
200000ba:	d1f6      	bne.n	200000aa <delay_milli+0xa>
200000bc:	46c0      	nop			; (mov r8, r8)
200000be:	46c0      	nop			; (mov r8, r8)
200000c0:	46bd      	mov	sp, r7
200000c2:	b002      	add	sp, #8
200000c4:	bd80      	pop	{r7, pc}

200000c6 <random_number>:
200000c6:	b580      	push	{r7, lr}
200000c8:	b084      	sub	sp, #16
200000ca:	af00      	add	r7, sp, #0
200000cc:	6078      	str	r0, [r7, #4]
200000ce:	6039      	str	r1, [r7, #0]
200000d0:	4b0f      	ldr	r3, [pc, #60]	; (20000110 <random_number+0x4a>)
200000d2:	881b      	ldrh	r3, [r3, #0]
200000d4:	b29b      	uxth	r3, r3
200000d6:	b2da      	uxtb	r2, r3
200000d8:	210e      	movs	r1, #14
200000da:	187b      	adds	r3, r7, r1
200000dc:	801a      	strh	r2, [r3, #0]
200000de:	187b      	adds	r3, r7, r1
200000e0:	2000      	movs	r0, #0
200000e2:	5e18      	ldrsh	r0, [r3, r0]
200000e4:	683a      	ldr	r2, [r7, #0]
200000e6:	687b      	ldr	r3, [r7, #4]
200000e8:	1ad3      	subs	r3, r2, r3
200000ea:	3301      	adds	r3, #1
200000ec:	0019      	movs	r1, r3
200000ee:	f000 fe13 	bl	20000d18 <__aeabi_idivmod>
200000f2:	000b      	movs	r3, r1
200000f4:	b2d9      	uxtb	r1, r3
200000f6:	687b      	ldr	r3, [r7, #4]
200000f8:	b2da      	uxtb	r2, r3
200000fa:	200d      	movs	r0, #13
200000fc:	183b      	adds	r3, r7, r0
200000fe:	188a      	adds	r2, r1, r2
20000100:	701a      	strb	r2, [r3, #0]
20000102:	183b      	adds	r3, r7, r0
20000104:	781b      	ldrb	r3, [r3, #0]
20000106:	0018      	movs	r0, r3
20000108:	46bd      	mov	sp, r7
2000010a:	b004      	add	sp, #16
2000010c:	bd80      	pop	{r7, pc}
2000010e:	46c0      	nop			; (mov r8, r8)
20000110:	40001024 	andmi	r1, r0, r4, lsr #32

20000114 <ascii_ctrl_bit_set>:
20000114:	b580      	push	{r7, lr}
20000116:	b084      	sub	sp, #16
20000118:	af00      	add	r7, sp, #0
2000011a:	0002      	movs	r2, r0
2000011c:	1dfb      	adds	r3, r7, #7
2000011e:	701a      	strb	r2, [r3, #0]
20000120:	4a09      	ldr	r2, [pc, #36]	; (20000148 <ascii_ctrl_bit_set+0x34>)
20000122:	210f      	movs	r1, #15
20000124:	187b      	adds	r3, r7, r1
20000126:	7d12      	ldrb	r2, [r2, #20]
20000128:	701a      	strb	r2, [r3, #0]
2000012a:	1dfa      	adds	r2, r7, #7
2000012c:	187b      	adds	r3, r7, r1
2000012e:	7812      	ldrb	r2, [r2, #0]
20000130:	781b      	ldrb	r3, [r3, #0]
20000132:	4313      	orrs	r3, r2
20000134:	b2db      	uxtb	r3, r3
20000136:	4a04      	ldr	r2, [pc, #16]	; (20000148 <ascii_ctrl_bit_set+0x34>)
20000138:	2104      	movs	r1, #4
2000013a:	430b      	orrs	r3, r1
2000013c:	b2db      	uxtb	r3, r3
2000013e:	7513      	strb	r3, [r2, #20]
20000140:	46c0      	nop			; (mov r8, r8)
20000142:	46bd      	mov	sp, r7
20000144:	b004      	add	sp, #16
20000146:	bd80      	pop	{r7, pc}
20000148:	40021000 	andmi	r1, r2, r0

2000014c <ascii_ctrl_bit_clear>:
2000014c:	b580      	push	{r7, lr}
2000014e:	b084      	sub	sp, #16
20000150:	af00      	add	r7, sp, #0
20000152:	0002      	movs	r2, r0
20000154:	1dfb      	adds	r3, r7, #7
20000156:	701a      	strb	r2, [r3, #0]
20000158:	4a0d      	ldr	r2, [pc, #52]	; (20000190 <ascii_ctrl_bit_clear+0x44>)
2000015a:	210f      	movs	r1, #15
2000015c:	187b      	adds	r3, r7, r1
2000015e:	7d12      	ldrb	r2, [r2, #20]
20000160:	701a      	strb	r2, [r3, #0]
20000162:	1dfb      	adds	r3, r7, #7
20000164:	781b      	ldrb	r3, [r3, #0]
20000166:	b25b      	sxtb	r3, r3
20000168:	43db      	mvns	r3, r3
2000016a:	b25b      	sxtb	r3, r3
2000016c:	187a      	adds	r2, r7, r1
2000016e:	7812      	ldrb	r2, [r2, #0]
20000170:	b252      	sxtb	r2, r2
20000172:	4013      	ands	r3, r2
20000174:	b25a      	sxtb	r2, r3
20000176:	187b      	adds	r3, r7, r1
20000178:	701a      	strb	r2, [r3, #0]
2000017a:	4a05      	ldr	r2, [pc, #20]	; (20000190 <ascii_ctrl_bit_clear+0x44>)
2000017c:	187b      	adds	r3, r7, r1
2000017e:	781b      	ldrb	r3, [r3, #0]
20000180:	2104      	movs	r1, #4
20000182:	430b      	orrs	r3, r1
20000184:	b2db      	uxtb	r3, r3
20000186:	7513      	strb	r3, [r2, #20]
20000188:	46c0      	nop			; (mov r8, r8)
2000018a:	46bd      	mov	sp, r7
2000018c:	b004      	add	sp, #16
2000018e:	bd80      	pop	{r7, pc}
20000190:	40021000 	andmi	r1, r2, r0

20000194 <ascii_write_controller>:
20000194:	b580      	push	{r7, lr}
20000196:	b082      	sub	sp, #8
20000198:	af00      	add	r7, sp, #0
2000019a:	0002      	movs	r2, r0
2000019c:	1dfb      	adds	r3, r7, #7
2000019e:	701a      	strb	r2, [r3, #0]
200001a0:	2040      	movs	r0, #64	; 0x40
200001a2:	f7ff ffb7 	bl	20000114 <ascii_ctrl_bit_set>
200001a6:	4a06      	ldr	r2, [pc, #24]	; (200001c0 <ascii_write_controller+0x2c>)
200001a8:	1dfb      	adds	r3, r7, #7
200001aa:	781b      	ldrb	r3, [r3, #0]
200001ac:	7553      	strb	r3, [r2, #21]
200001ae:	f7ff ff2f 	bl	20000010 <delay_250ns>
200001b2:	2040      	movs	r0, #64	; 0x40
200001b4:	f7ff ffca 	bl	2000014c <ascii_ctrl_bit_clear>
200001b8:	46c0      	nop			; (mov r8, r8)
200001ba:	46bd      	mov	sp, r7
200001bc:	b002      	add	sp, #8
200001be:	bd80      	pop	{r7, pc}
200001c0:	40021000 	andmi	r1, r2, r0

200001c4 <ascii_read_controller>:
200001c4:	b580      	push	{r7, lr}
200001c6:	b082      	sub	sp, #8
200001c8:	af00      	add	r7, sp, #0
200001ca:	2040      	movs	r0, #64	; 0x40
200001cc:	f7ff ffa2 	bl	20000114 <ascii_ctrl_bit_set>
200001d0:	4a06      	ldr	r2, [pc, #24]	; (200001ec <ascii_read_controller+0x28>)
200001d2:	1dfb      	adds	r3, r7, #7
200001d4:	7c52      	ldrb	r2, [r2, #17]
200001d6:	701a      	strb	r2, [r3, #0]
200001d8:	2040      	movs	r0, #64	; 0x40
200001da:	f7ff ffb7 	bl	2000014c <ascii_ctrl_bit_clear>
200001de:	1dfb      	adds	r3, r7, #7
200001e0:	781b      	ldrb	r3, [r3, #0]
200001e2:	0018      	movs	r0, r3
200001e4:	46bd      	mov	sp, r7
200001e6:	b002      	add	sp, #8
200001e8:	bd80      	pop	{r7, pc}
200001ea:	46c0      	nop			; (mov r8, r8)
200001ec:	40021000 	andmi	r1, r2, r0

200001f0 <ascii_write_cmd>:
200001f0:	b580      	push	{r7, lr}
200001f2:	b082      	sub	sp, #8
200001f4:	af00      	add	r7, sp, #0
200001f6:	0002      	movs	r2, r0
200001f8:	1dfb      	adds	r3, r7, #7
200001fa:	701a      	strb	r2, [r3, #0]
200001fc:	2001      	movs	r0, #1
200001fe:	f7ff ffa5 	bl	2000014c <ascii_ctrl_bit_clear>
20000202:	2002      	movs	r0, #2
20000204:	f7ff ffa2 	bl	2000014c <ascii_ctrl_bit_clear>
20000208:	1dfb      	adds	r3, r7, #7
2000020a:	781b      	ldrb	r3, [r3, #0]
2000020c:	0018      	movs	r0, r3
2000020e:	f7ff ffc1 	bl	20000194 <ascii_write_controller>
20000212:	46c0      	nop			; (mov r8, r8)
20000214:	46bd      	mov	sp, r7
20000216:	b002      	add	sp, #8
20000218:	bd80      	pop	{r7, pc}

2000021a <ascii_write_data>:
2000021a:	b580      	push	{r7, lr}
2000021c:	b082      	sub	sp, #8
2000021e:	af00      	add	r7, sp, #0
20000220:	0002      	movs	r2, r0
20000222:	1dfb      	adds	r3, r7, #7
20000224:	701a      	strb	r2, [r3, #0]
20000226:	2001      	movs	r0, #1
20000228:	f7ff ff74 	bl	20000114 <ascii_ctrl_bit_set>
2000022c:	2002      	movs	r0, #2
2000022e:	f7ff ff8d 	bl	2000014c <ascii_ctrl_bit_clear>
20000232:	1dfb      	adds	r3, r7, #7
20000234:	781b      	ldrb	r3, [r3, #0]
20000236:	0018      	movs	r0, r3
20000238:	f7ff ffac 	bl	20000194 <ascii_write_controller>
2000023c:	46c0      	nop			; (mov r8, r8)
2000023e:	46bd      	mov	sp, r7
20000240:	b002      	add	sp, #8
20000242:	bd80      	pop	{r7, pc}

20000244 <ascii_read_status>:
20000244:	b590      	push	{r4, r7, lr}
20000246:	b083      	sub	sp, #12
20000248:	af00      	add	r7, sp, #0
2000024a:	4b0b      	ldr	r3, [pc, #44]	; (20000278 <ascii_read_status+0x34>)
2000024c:	4a0b      	ldr	r2, [pc, #44]	; (2000027c <ascii_read_status+0x38>)
2000024e:	601a      	str	r2, [r3, #0]
20000250:	2002      	movs	r0, #2
20000252:	f7ff ff5f 	bl	20000114 <ascii_ctrl_bit_set>
20000256:	2001      	movs	r0, #1
20000258:	f7ff ff78 	bl	2000014c <ascii_ctrl_bit_clear>
2000025c:	1dfc      	adds	r4, r7, #7
2000025e:	f7ff ffb1 	bl	200001c4 <ascii_read_controller>
20000262:	0003      	movs	r3, r0
20000264:	7023      	strb	r3, [r4, #0]
20000266:	4b04      	ldr	r3, [pc, #16]	; (20000278 <ascii_read_status+0x34>)
20000268:	4a05      	ldr	r2, [pc, #20]	; (20000280 <ascii_read_status+0x3c>)
2000026a:	601a      	str	r2, [r3, #0]
2000026c:	1dfb      	adds	r3, r7, #7
2000026e:	781b      	ldrb	r3, [r3, #0]
20000270:	0018      	movs	r0, r3
20000272:	46bd      	mov	sp, r7
20000274:	b003      	add	sp, #12
20000276:	bd90      	pop	{r4, r7, pc}
20000278:	40021000 	andmi	r1, r2, r0
2000027c:	00005555 	andeq	r5, r0, r5, asr r5
20000280:	55555555 	ldrbpl	r5, [r5, #-1365]	; 0xfffffaab

20000284 <ascii_read_data>:
20000284:	b590      	push	{r4, r7, lr}
20000286:	b083      	sub	sp, #12
20000288:	af00      	add	r7, sp, #0
2000028a:	4b0e      	ldr	r3, [pc, #56]	; (200002c4 <ascii_read_data+0x40>)
2000028c:	681a      	ldr	r2, [r3, #0]
2000028e:	4b0d      	ldr	r3, [pc, #52]	; (200002c4 <ascii_read_data+0x40>)
20000290:	0412      	lsls	r2, r2, #16
20000292:	0c12      	lsrs	r2, r2, #16
20000294:	601a      	str	r2, [r3, #0]
20000296:	2001      	movs	r0, #1
20000298:	f7ff ff3c 	bl	20000114 <ascii_ctrl_bit_set>
2000029c:	2002      	movs	r0, #2
2000029e:	f7ff ff39 	bl	20000114 <ascii_ctrl_bit_set>
200002a2:	1dfc      	adds	r4, r7, #7
200002a4:	f7ff ff8e 	bl	200001c4 <ascii_read_controller>
200002a8:	0003      	movs	r3, r0
200002aa:	7023      	strb	r3, [r4, #0]
200002ac:	4b05      	ldr	r3, [pc, #20]	; (200002c4 <ascii_read_data+0x40>)
200002ae:	681a      	ldr	r2, [r3, #0]
200002b0:	4b04      	ldr	r3, [pc, #16]	; (200002c4 <ascii_read_data+0x40>)
200002b2:	4905      	ldr	r1, [pc, #20]	; (200002c8 <ascii_read_data+0x44>)
200002b4:	430a      	orrs	r2, r1
200002b6:	601a      	str	r2, [r3, #0]
200002b8:	1dfb      	adds	r3, r7, #7
200002ba:	781b      	ldrb	r3, [r3, #0]
200002bc:	0018      	movs	r0, r3
200002be:	46bd      	mov	sp, r7
200002c0:	b003      	add	sp, #12
200002c2:	bd90      	pop	{r4, r7, pc}
200002c4:	40021000 	andmi	r1, r2, r0
200002c8:	55550000 	ldrbpl	r0, [r5, #-0]

200002cc <ascii_command>:
200002cc:	b580      	push	{r7, lr}
200002ce:	b082      	sub	sp, #8
200002d0:	af00      	add	r7, sp, #0
200002d2:	0002      	movs	r2, r0
200002d4:	1dfb      	adds	r3, r7, #7
200002d6:	701a      	strb	r2, [r3, #0]
200002d8:	46c0      	nop			; (mov r8, r8)
200002da:	f7ff ffb3 	bl	20000244 <ascii_read_status>
200002de:	0003      	movs	r3, r0
200002e0:	001a      	movs	r2, r3
200002e2:	2380      	movs	r3, #128	; 0x80
200002e4:	4013      	ands	r3, r2
200002e6:	2b80      	cmp	r3, #128	; 0x80
200002e8:	d0f7      	beq.n	200002da <ascii_command+0xe>
200002ea:	2008      	movs	r0, #8
200002ec:	f7ff feb2 	bl	20000054 <delay_micro>
200002f0:	1dfb      	adds	r3, r7, #7
200002f2:	781b      	ldrb	r3, [r3, #0]
200002f4:	0018      	movs	r0, r3
200002f6:	f7ff ff7b 	bl	200001f0 <ascii_write_cmd>
200002fa:	46c0      	nop			; (mov r8, r8)
200002fc:	46bd      	mov	sp, r7
200002fe:	b002      	add	sp, #8
20000300:	bd80      	pop	{r7, pc}

20000302 <ascii_init>:
20000302:	b580      	push	{r7, lr}
20000304:	af00      	add	r7, sp, #0
20000306:	2038      	movs	r0, #56	; 0x38
20000308:	f7ff ffe0 	bl	200002cc <ascii_command>
2000030c:	2027      	movs	r0, #39	; 0x27
2000030e:	f7ff fea1 	bl	20000054 <delay_micro>
20000312:	200e      	movs	r0, #14
20000314:	f7ff ffda 	bl	200002cc <ascii_command>
20000318:	2027      	movs	r0, #39	; 0x27
2000031a:	f7ff fe9b 	bl	20000054 <delay_micro>
2000031e:	2001      	movs	r0, #1
20000320:	f7ff ffd4 	bl	200002cc <ascii_command>
20000324:	2002      	movs	r0, #2
20000326:	f7ff febb 	bl	200000a0 <delay_milli>
2000032a:	2006      	movs	r0, #6
2000032c:	f7ff ffce 	bl	200002cc <ascii_command>
20000330:	2027      	movs	r0, #39	; 0x27
20000332:	f7ff fe8f 	bl	20000054 <delay_micro>
20000336:	46c0      	nop			; (mov r8, r8)
20000338:	46bd      	mov	sp, r7
2000033a:	bd80      	pop	{r7, pc}

2000033c <ascii_write_char>:
2000033c:	b580      	push	{r7, lr}
2000033e:	b082      	sub	sp, #8
20000340:	af00      	add	r7, sp, #0
20000342:	0002      	movs	r2, r0
20000344:	1dfb      	adds	r3, r7, #7
20000346:	701a      	strb	r2, [r3, #0]
20000348:	46c0      	nop			; (mov r8, r8)
2000034a:	f7ff ff7b 	bl	20000244 <ascii_read_status>
2000034e:	0003      	movs	r3, r0
20000350:	001a      	movs	r2, r3
20000352:	2380      	movs	r3, #128	; 0x80
20000354:	4013      	ands	r3, r2
20000356:	2b80      	cmp	r3, #128	; 0x80
20000358:	d0f7      	beq.n	2000034a <ascii_write_char+0xe>
2000035a:	2008      	movs	r0, #8
2000035c:	f7ff fe7a 	bl	20000054 <delay_micro>
20000360:	1dfb      	adds	r3, r7, #7
20000362:	781b      	ldrb	r3, [r3, #0]
20000364:	0018      	movs	r0, r3
20000366:	f7ff ff58 	bl	2000021a <ascii_write_data>
2000036a:	202b      	movs	r0, #43	; 0x2b
2000036c:	f7ff fe72 	bl	20000054 <delay_micro>
20000370:	46c0      	nop			; (mov r8, r8)
20000372:	46bd      	mov	sp, r7
20000374:	b002      	add	sp, #8
20000376:	bd80      	pop	{r7, pc}

20000378 <ascii_gotxy>:
20000378:	b580      	push	{r7, lr}
2000037a:	b084      	sub	sp, #16
2000037c:	af00      	add	r7, sp, #0
2000037e:	0002      	movs	r2, r0
20000380:	1dfb      	adds	r3, r7, #7
20000382:	701a      	strb	r2, [r3, #0]
20000384:	1dbb      	adds	r3, r7, #6
20000386:	1c0a      	adds	r2, r1, #0
20000388:	701a      	strb	r2, [r3, #0]
2000038a:	210f      	movs	r1, #15
2000038c:	187b      	adds	r3, r7, r1
2000038e:	1dfa      	adds	r2, r7, #7
20000390:	7812      	ldrb	r2, [r2, #0]
20000392:	3a01      	subs	r2, #1
20000394:	701a      	strb	r2, [r3, #0]
20000396:	1dbb      	adds	r3, r7, #6
20000398:	781b      	ldrb	r3, [r3, #0]
2000039a:	2b02      	cmp	r3, #2
2000039c:	d104      	bne.n	200003a8 <ascii_gotxy+0x30>
2000039e:	187b      	adds	r3, r7, r1
200003a0:	187a      	adds	r2, r7, r1
200003a2:	7812      	ldrb	r2, [r2, #0]
200003a4:	3240      	adds	r2, #64	; 0x40
200003a6:	701a      	strb	r2, [r3, #0]
200003a8:	230f      	movs	r3, #15
200003aa:	18fb      	adds	r3, r7, r3
200003ac:	781b      	ldrb	r3, [r3, #0]
200003ae:	2280      	movs	r2, #128	; 0x80
200003b0:	4252      	negs	r2, r2
200003b2:	4313      	orrs	r3, r2
200003b4:	b2db      	uxtb	r3, r3
200003b6:	0018      	movs	r0, r3
200003b8:	f7ff ff1a 	bl	200001f0 <ascii_write_cmd>
200003bc:	46c0      	nop			; (mov r8, r8)
200003be:	46bd      	mov	sp, r7
200003c0:	b004      	add	sp, #16
200003c2:	bd80      	pop	{r7, pc}

200003c4 <write_ascii>:
200003c4:	b580      	push	{r7, lr}
200003c6:	b084      	sub	sp, #16
200003c8:	af00      	add	r7, sp, #0
200003ca:	6078      	str	r0, [r7, #4]
200003cc:	6039      	str	r1, [r7, #0]
200003ce:	f7ff ff98 	bl	20000302 <ascii_init>
200003d2:	2101      	movs	r1, #1
200003d4:	2001      	movs	r0, #1
200003d6:	f7ff ffcf 	bl	20000378 <ascii_gotxy>
200003da:	687b      	ldr	r3, [r7, #4]
200003dc:	60fb      	str	r3, [r7, #12]
200003de:	e006      	b.n	200003ee <write_ascii+0x2a>
200003e0:	68fb      	ldr	r3, [r7, #12]
200003e2:	1c5a      	adds	r2, r3, #1
200003e4:	60fa      	str	r2, [r7, #12]
200003e6:	781b      	ldrb	r3, [r3, #0]
200003e8:	0018      	movs	r0, r3
200003ea:	f7ff ffa7 	bl	2000033c <ascii_write_char>
200003ee:	68fb      	ldr	r3, [r7, #12]
200003f0:	781b      	ldrb	r3, [r3, #0]
200003f2:	2b00      	cmp	r3, #0
200003f4:	d1f4      	bne.n	200003e0 <write_ascii+0x1c>
200003f6:	2102      	movs	r1, #2
200003f8:	2001      	movs	r0, #1
200003fa:	f7ff ffbd 	bl	20000378 <ascii_gotxy>
200003fe:	683b      	ldr	r3, [r7, #0]
20000400:	60fb      	str	r3, [r7, #12]
20000402:	e006      	b.n	20000412 <write_ascii+0x4e>
20000404:	68fb      	ldr	r3, [r7, #12]
20000406:	1c5a      	adds	r2, r3, #1
20000408:	60fa      	str	r2, [r7, #12]
2000040a:	781b      	ldrb	r3, [r3, #0]
2000040c:	0018      	movs	r0, r3
2000040e:	f7ff ff95 	bl	2000033c <ascii_write_char>
20000412:	68fb      	ldr	r3, [r7, #12]
20000414:	781b      	ldrb	r3, [r3, #0]
20000416:	2b00      	cmp	r3, #0
20000418:	d1f4      	bne.n	20000404 <write_ascii+0x40>
2000041a:	2300      	movs	r3, #0
2000041c:	0018      	movs	r0, r3
2000041e:	46bd      	mov	sp, r7
20000420:	b004      	add	sp, #16
20000422:	bd80      	pop	{r7, pc}

20000424 <graphic_initalize>:

//GRPAPHICS DRIVERS----------------------------
//OBS! graphic_init. sets up port E for usage
__attribute__((naked))
void graphic_initalize(void)
{
20000424:	4770dff0 			; <UNDEFINED> instruction: 0x4770dff0
	__asm volatile(" .HWORD 0xDFF0\n");
	__asm volatile(" BX LR\n");
}
20000428:	46c0      	nop			; (mov r8, r8)

2000042a <graphic_pixel_set>:

__attribute__((naked))
void graphic_pixel_set(int x, int y)
{
2000042a:	4770dff2 			; <UNDEFINED> instruction: 0x4770dff2
	__asm volatile(" .HWORD 0xDFF2\n");
	__asm volatile(" BX LR\n");
}
2000042e:	46c0      	nop			; (mov r8, r8)

20000430 <graphic_clear_screen>:

__attribute__((naked))
void graphic_clear_screen(void)
{
20000430:	4770dff1 			; <UNDEFINED> instruction: 0x4770dff1
	__asm volatile(" .HWORD 0xDFF1\n");
	__asm volatile(" BX LR\n");
}
20000434:	46c0      	nop			; (mov r8, r8)

20000436 <graphic_pixel_clear>:

__attribute__((naked))
void graphic_pixel_clear(int x, int y)
{
20000436:	4770dff3 			; <UNDEFINED> instruction: 0x4770dff3
	__asm volatile(" .HWORD 0xDFF3\n");
	__asm volatile(" BX LR\n");
}
2000043a:	46c0      	nop			; (mov r8, r8)

2000043c <draw_object>:

//GRAPHICS DRIVERS----------------------------
//OBJECT-----------------------------
//general methods
void draw_object(POBJECT obj)
{
2000043c:	b590      	push	{r4, r7, lr}
2000043e:	b087      	sub	sp, #28
20000440:	af00      	add	r7, sp, #0
20000442:	6078      	str	r0, [r7, #4]
	int numpixels = obj -> geo -> numpoints;
20000444:	687b      	ldr	r3, [r7, #4]
20000446:	681b      	ldr	r3, [r3, #0]
20000448:	681b      	ldr	r3, [r3, #0]
2000044a:	613b      	str	r3, [r7, #16]
	for(int i = 0; i < numpixels; i++)
2000044c:	2300      	movs	r3, #0
2000044e:	617b      	str	r3, [r7, #20]
20000450:	e02c      	b.n	200004ac <draw_object+0x70>
	{
		unsigned char x = obj -> geo -> px[i].x + (obj -> posx) * SQUARE_WIDTH;
20000452:	687b      	ldr	r3, [r7, #4]
20000454:	681a      	ldr	r2, [r3, #0]
20000456:	697b      	ldr	r3, [r7, #20]
20000458:	3304      	adds	r3, #4
2000045a:	005b      	lsls	r3, r3, #1
2000045c:	18d3      	adds	r3, r2, r3
2000045e:	3304      	adds	r3, #4
20000460:	7819      	ldrb	r1, [r3, #0]
20000462:	687b      	ldr	r3, [r7, #4]
20000464:	68db      	ldr	r3, [r3, #12]
20000466:	b2db      	uxtb	r3, r3
20000468:	009b      	lsls	r3, r3, #2
2000046a:	b2da      	uxtb	r2, r3
2000046c:	200f      	movs	r0, #15
2000046e:	183b      	adds	r3, r7, r0
20000470:	188a      	adds	r2, r1, r2
20000472:	701a      	strb	r2, [r3, #0]
		unsigned char y = obj -> geo -> px[i].y + (obj -> posy) * SQUARE_WIDTH;
20000474:	687b      	ldr	r3, [r7, #4]
20000476:	681a      	ldr	r2, [r3, #0]
20000478:	697b      	ldr	r3, [r7, #20]
2000047a:	3304      	adds	r3, #4
2000047c:	005b      	lsls	r3, r3, #1
2000047e:	18d3      	adds	r3, r2, r3
20000480:	3305      	adds	r3, #5
20000482:	7819      	ldrb	r1, [r3, #0]
20000484:	687b      	ldr	r3, [r7, #4]
20000486:	691b      	ldr	r3, [r3, #16]
20000488:	b2db      	uxtb	r3, r3
2000048a:	009b      	lsls	r3, r3, #2
2000048c:	b2da      	uxtb	r2, r3
2000048e:	240e      	movs	r4, #14
20000490:	193b      	adds	r3, r7, r4
20000492:	188a      	adds	r2, r1, r2
20000494:	701a      	strb	r2, [r3, #0]
		graphic_pixel_set(x, y);
20000496:	183b      	adds	r3, r7, r0
20000498:	781a      	ldrb	r2, [r3, #0]
2000049a:	193b      	adds	r3, r7, r4
2000049c:	781b      	ldrb	r3, [r3, #0]
2000049e:	0019      	movs	r1, r3
200004a0:	0010      	movs	r0, r2
200004a2:	f7ff ffc2 	bl	2000042a <graphic_pixel_set>
	for(int i = 0; i < numpixels; i++)
200004a6:	697b      	ldr	r3, [r7, #20]
200004a8:	3301      	adds	r3, #1
200004aa:	617b      	str	r3, [r7, #20]
200004ac:	697a      	ldr	r2, [r7, #20]
200004ae:	693b      	ldr	r3, [r7, #16]
200004b0:	429a      	cmp	r2, r3
200004b2:	dbce      	blt.n	20000452 <draw_object+0x16>
	}
}
200004b4:	46c0      	nop			; (mov r8, r8)
200004b6:	46c0      	nop			; (mov r8, r8)
200004b8:	46bd      	mov	sp, r7
200004ba:	b007      	add	sp, #28
200004bc:	bd90      	pop	{r4, r7, pc}

200004be <clear_object>:

void clear_object(POBJECT obj)
{
200004be:	b590      	push	{r4, r7, lr}
200004c0:	b087      	sub	sp, #28
200004c2:	af00      	add	r7, sp, #0
200004c4:	6078      	str	r0, [r7, #4]
	int numpixels = obj -> geo -> numpoints;
200004c6:	687b      	ldr	r3, [r7, #4]
200004c8:	681b      	ldr	r3, [r3, #0]
200004ca:	681b      	ldr	r3, [r3, #0]
200004cc:	613b      	str	r3, [r7, #16]
	for(int i = 0; i < numpixels; i++)
200004ce:	2300      	movs	r3, #0
200004d0:	617b      	str	r3, [r7, #20]
200004d2:	e02c      	b.n	2000052e <clear_object+0x70>
	{ 
		unsigned char x = obj -> geo -> px[i].x + (obj -> posx) * SQUARE_WIDTH;
200004d4:	687b      	ldr	r3, [r7, #4]
200004d6:	681a      	ldr	r2, [r3, #0]
200004d8:	697b      	ldr	r3, [r7, #20]
200004da:	3304      	adds	r3, #4
200004dc:	005b      	lsls	r3, r3, #1
200004de:	18d3      	adds	r3, r2, r3
200004e0:	3304      	adds	r3, #4
200004e2:	7819      	ldrb	r1, [r3, #0]
200004e4:	687b      	ldr	r3, [r7, #4]
200004e6:	68db      	ldr	r3, [r3, #12]
200004e8:	b2db      	uxtb	r3, r3
200004ea:	009b      	lsls	r3, r3, #2
200004ec:	b2da      	uxtb	r2, r3
200004ee:	200f      	movs	r0, #15
200004f0:	183b      	adds	r3, r7, r0
200004f2:	188a      	adds	r2, r1, r2
200004f4:	701a      	strb	r2, [r3, #0]
		unsigned char y = obj -> geo -> px[i].y + (obj -> posy) * SQUARE_WIDTH;
200004f6:	687b      	ldr	r3, [r7, #4]
200004f8:	681a      	ldr	r2, [r3, #0]
200004fa:	697b      	ldr	r3, [r7, #20]
200004fc:	3304      	adds	r3, #4
200004fe:	005b      	lsls	r3, r3, #1
20000500:	18d3      	adds	r3, r2, r3
20000502:	3305      	adds	r3, #5
20000504:	7819      	ldrb	r1, [r3, #0]
20000506:	687b      	ldr	r3, [r7, #4]
20000508:	691b      	ldr	r3, [r3, #16]
2000050a:	b2db      	uxtb	r3, r3
2000050c:	009b      	lsls	r3, r3, #2
2000050e:	b2da      	uxtb	r2, r3
20000510:	240e      	movs	r4, #14
20000512:	193b      	adds	r3, r7, r4
20000514:	188a      	adds	r2, r1, r2
20000516:	701a      	strb	r2, [r3, #0]
		graphic_pixel_clear(x, y);
20000518:	183b      	adds	r3, r7, r0
2000051a:	781a      	ldrb	r2, [r3, #0]
2000051c:	193b      	adds	r3, r7, r4
2000051e:	781b      	ldrb	r3, [r3, #0]
20000520:	0019      	movs	r1, r3
20000522:	0010      	movs	r0, r2
20000524:	f7ff ff87 	bl	20000436 <graphic_pixel_clear>
	for(int i = 0; i < numpixels; i++)
20000528:	697b      	ldr	r3, [r7, #20]
2000052a:	3301      	adds	r3, #1
2000052c:	617b      	str	r3, [r7, #20]
2000052e:	697a      	ldr	r2, [r7, #20]
20000530:	693b      	ldr	r3, [r7, #16]
20000532:	429a      	cmp	r2, r3
20000534:	dbce      	blt.n	200004d4 <clear_object+0x16>
	}
}
20000536:	46c0      	nop			; (mov r8, r8)
20000538:	46c0      	nop			; (mov r8, r8)
2000053a:	46bd      	mov	sp, r7
2000053c:	b007      	add	sp, #28
2000053e:	bd90      	pop	{r4, r7, pc}

20000540 <set_object_speed>:

void set_object_speed(POBJECT obj, int x, int y)
{
20000540:	b580      	push	{r7, lr}
20000542:	b084      	sub	sp, #16
20000544:	af00      	add	r7, sp, #0
20000546:	60f8      	str	r0, [r7, #12]
20000548:	60b9      	str	r1, [r7, #8]
2000054a:	607a      	str	r2, [r7, #4]
	obj -> dirx = x;
2000054c:	68fb      	ldr	r3, [r7, #12]
2000054e:	68ba      	ldr	r2, [r7, #8]
20000550:	605a      	str	r2, [r3, #4]
	obj -> diry = y;
20000552:	68fb      	ldr	r3, [r7, #12]
20000554:	687a      	ldr	r2, [r7, #4]
20000556:	609a      	str	r2, [r3, #8]
}
20000558:	46c0      	nop			; (mov r8, r8)
2000055a:	46bd      	mov	sp, r7
2000055c:	b004      	add	sp, #16
2000055e:	bd80      	pop	{r7, pc}

20000560 <move_snake>:

//snake methods
void move_snake(POBJECT snakeO)
{
20000560:	b580      	push	{r7, lr}
20000562:	b082      	sub	sp, #8
20000564:	af00      	add	r7, sp, #0
20000566:	6078      	str	r0, [r7, #4]
	//deside new pos. by adding dir coordinates to list of points
	clear_object(snakeO);
20000568:	687b      	ldr	r3, [r7, #4]
2000056a:	0018      	movs	r0, r3
2000056c:	f7ff ffa7 	bl	200004be <clear_object>
	snakeO-> posx += snakeO-> dirx;
20000570:	687b      	ldr	r3, [r7, #4]
20000572:	68da      	ldr	r2, [r3, #12]
20000574:	687b      	ldr	r3, [r7, #4]
20000576:	685b      	ldr	r3, [r3, #4]
20000578:	18d2      	adds	r2, r2, r3
2000057a:	687b      	ldr	r3, [r7, #4]
2000057c:	60da      	str	r2, [r3, #12]
	snakeO-> posy += snakeO-> diry;
2000057e:	687b      	ldr	r3, [r7, #4]
20000580:	691a      	ldr	r2, [r3, #16]
20000582:	687b      	ldr	r3, [r7, #4]
20000584:	689b      	ldr	r3, [r3, #8]
20000586:	18d2      	adds	r2, r2, r3
20000588:	687b      	ldr	r3, [r7, #4]
2000058a:	611a      	str	r2, [r3, #16]
	draw_object(snakeO);
2000058c:	687b      	ldr	r3, [r7, #4]
2000058e:	0018      	movs	r0, r3
20000590:	f7ff ff54 	bl	2000043c <draw_object>
	delay_milli(100);
20000594:	2064      	movs	r0, #100	; 0x64
20000596:	f7ff fd83 	bl	200000a0 <delay_milli>
}
2000059a:	46c0      	nop			; (mov r8, r8)
2000059c:	46bd      	mov	sp, r7
2000059e:	b002      	add	sp, #8
200005a0:	bd80      	pop	{r7, pc}

200005a2 <move_apple>:

//apple methods
void move_apple(POBJECT appleO)
{
200005a2:	b580      	push	{r7, lr}
200005a4:	b082      	sub	sp, #8
200005a6:	af00      	add	r7, sp, #0
200005a8:	6078      	str	r0, [r7, #4]
	clear_object(appleO);
200005aa:	687b      	ldr	r3, [r7, #4]
200005ac:	0018      	movs	r0, r3
200005ae:	f7ff ff86 	bl	200004be <clear_object>
	appleO -> posx = random_number(1, SCREEN_WIDTH);
200005b2:	2120      	movs	r1, #32
200005b4:	2001      	movs	r0, #1
200005b6:	f7ff fd86 	bl	200000c6 <random_number>
200005ba:	0002      	movs	r2, r0
200005bc:	687b      	ldr	r3, [r7, #4]
200005be:	60da      	str	r2, [r3, #12]
	appleO -> posy = random_number(1, SCREEN_HEIGHT);
200005c0:	2110      	movs	r1, #16
200005c2:	2001      	movs	r0, #1
200005c4:	f7ff fd7f 	bl	200000c6 <random_number>
200005c8:	0002      	movs	r2, r0
200005ca:	687b      	ldr	r3, [r7, #4]
200005cc:	611a      	str	r2, [r3, #16]
	draw_object(appleO);
200005ce:	687b      	ldr	r3, [r7, #4]
200005d0:	0018      	movs	r0, r3
200005d2:	f7ff ff33 	bl	2000043c <draw_object>
}
200005d6:	46c0      	nop			; (mov r8, r8)
200005d8:	46bd      	mov	sp, r7
200005da:	b002      	add	sp, #8
200005dc:	bd80      	pop	{r7, pc}

200005de <create_tail>:
		{0,3},{1,3},{2,3},{3,3},

	}
};

static POBJECT create_tail(POBJECT obj, int x, int y) {
200005de:	b580      	push	{r7, lr}
200005e0:	b084      	sub	sp, #16
200005e2:	af00      	add	r7, sp, #0
200005e4:	60f8      	str	r0, [r7, #12]
200005e6:	60b9      	str	r1, [r7, #8]
200005e8:	607a      	str	r2, [r7, #4]
	//obj -> geo = &snake_geometry;
	obj -> posx = 2;
200005ea:	68fb      	ldr	r3, [r7, #12]
200005ec:	2202      	movs	r2, #2
200005ee:	60da      	str	r2, [r3, #12]
	obj -> posy = y;
200005f0:	68fb      	ldr	r3, [r7, #12]
200005f2:	687a      	ldr	r2, [r7, #4]
200005f4:	611a      	str	r2, [r3, #16]
	obj -> dirx = 0;
200005f6:	68fb      	ldr	r3, [r7, #12]
200005f8:	2200      	movs	r2, #0
200005fa:	605a      	str	r2, [r3, #4]
	obj -> diry = 0;
200005fc:	68fb      	ldr	r3, [r7, #12]
200005fe:	2200      	movs	r2, #0
20000600:	609a      	str	r2, [r3, #8]
	obj -> draw = draw_object;
20000602:	68fb      	ldr	r3, [r7, #12]
20000604:	4a07      	ldr	r2, [pc, #28]	; (20000624 <create_tail+0x46>)
20000606:	615a      	str	r2, [r3, #20]
	obj -> clear = clear_object;
20000608:	68fb      	ldr	r3, [r7, #12]
2000060a:	4a07      	ldr	r2, [pc, #28]	; (20000628 <create_tail+0x4a>)
2000060c:	619a      	str	r2, [r3, #24]
	obj -> move = move_snake;
2000060e:	68fb      	ldr	r3, [r7, #12]
20000610:	4a06      	ldr	r2, [pc, #24]	; (2000062c <create_tail+0x4e>)
20000612:	61da      	str	r2, [r3, #28]
	obj -> set_speed = set_object_speed;
20000614:	68fb      	ldr	r3, [r7, #12]
20000616:	4a06      	ldr	r2, [pc, #24]	; (20000630 <create_tail+0x52>)
20000618:	621a      	str	r2, [r3, #32]
	return obj;
2000061a:	68fb      	ldr	r3, [r7, #12]
}
2000061c:	0018      	movs	r0, r3
2000061e:	46bd      	mov	sp, r7
20000620:	b004      	add	sp, #16
20000622:	bd80      	pop	{r7, pc}
20000624:	2000043d 	andcs	r0, r0, sp, lsr r4
20000628:	200004bf 			; <UNDEFINED> instruction: 0x200004bf
2000062c:	20000561 	andcs	r0, r0, r1, ror #10
20000630:	20000541 	andcs	r0, r0, r1, asr #10

20000634 <pixel_overlap>:
//SNAKE TAIL
//DEFINED OBJ.------------------------

//collision detection-------------------------------
int pixel_overlap(POBJECT o1, POBJECT o2) {
20000634:	b580      	push	{r7, lr}
20000636:	b088      	sub	sp, #32
20000638:	af00      	add	r7, sp, #0
2000063a:	6078      	str	r0, [r7, #4]
2000063c:	6039      	str	r1, [r7, #0]
  int offset1x = o1->posx;
2000063e:	687b      	ldr	r3, [r7, #4]
20000640:	68db      	ldr	r3, [r3, #12]
20000642:	617b      	str	r3, [r7, #20]
  int offset1y = o1->posy;
20000644:	687b      	ldr	r3, [r7, #4]
20000646:	691b      	ldr	r3, [r3, #16]
20000648:	613b      	str	r3, [r7, #16]
  int offset2x = o2->posx;
2000064a:	683b      	ldr	r3, [r7, #0]
2000064c:	68db      	ldr	r3, [r3, #12]
2000064e:	60fb      	str	r3, [r7, #12]
  int offset2y = o2->posy;
20000650:	683b      	ldr	r3, [r7, #0]
20000652:	691b      	ldr	r3, [r3, #16]
20000654:	60bb      	str	r3, [r7, #8]
  for (int i = 0; i < o1->geo->numpoints; i++) {
20000656:	2300      	movs	r3, #0
20000658:	61fb      	str	r3, [r7, #28]
2000065a:	e040      	b.n	200006de <pixel_overlap+0xaa>
    for (int j = 0; j < o2-> geo->numpoints; j++)
2000065c:	2300      	movs	r3, #0
2000065e:	61bb      	str	r3, [r7, #24]
20000660:	e034      	b.n	200006cc <pixel_overlap+0x98>
      if ((offset1x + o1->geo->px[i].x == offset2x + o2->geo->px[j].x) &&
20000662:	687b      	ldr	r3, [r7, #4]
20000664:	681a      	ldr	r2, [r3, #0]
20000666:	69fb      	ldr	r3, [r7, #28]
20000668:	3304      	adds	r3, #4
2000066a:	005b      	lsls	r3, r3, #1
2000066c:	18d3      	adds	r3, r2, r3
2000066e:	3304      	adds	r3, #4
20000670:	781b      	ldrb	r3, [r3, #0]
20000672:	001a      	movs	r2, r3
20000674:	697b      	ldr	r3, [r7, #20]
20000676:	18d2      	adds	r2, r2, r3
20000678:	683b      	ldr	r3, [r7, #0]
2000067a:	6819      	ldr	r1, [r3, #0]
2000067c:	69bb      	ldr	r3, [r7, #24]
2000067e:	3304      	adds	r3, #4
20000680:	005b      	lsls	r3, r3, #1
20000682:	18cb      	adds	r3, r1, r3
20000684:	3304      	adds	r3, #4
20000686:	781b      	ldrb	r3, [r3, #0]
20000688:	0019      	movs	r1, r3
2000068a:	68fb      	ldr	r3, [r7, #12]
2000068c:	18cb      	adds	r3, r1, r3
2000068e:	429a      	cmp	r2, r3
20000690:	d119      	bne.n	200006c6 <pixel_overlap+0x92>
        (offset1y + o1->geo->px[i].y == offset2y + o2->geo->px[j].y)) return 1;
20000692:	687b      	ldr	r3, [r7, #4]
20000694:	681a      	ldr	r2, [r3, #0]
20000696:	69fb      	ldr	r3, [r7, #28]
20000698:	3304      	adds	r3, #4
2000069a:	005b      	lsls	r3, r3, #1
2000069c:	18d3      	adds	r3, r2, r3
2000069e:	3305      	adds	r3, #5
200006a0:	781b      	ldrb	r3, [r3, #0]
200006a2:	001a      	movs	r2, r3
200006a4:	693b      	ldr	r3, [r7, #16]
200006a6:	18d2      	adds	r2, r2, r3
200006a8:	683b      	ldr	r3, [r7, #0]
200006aa:	6819      	ldr	r1, [r3, #0]
200006ac:	69bb      	ldr	r3, [r7, #24]
200006ae:	3304      	adds	r3, #4
200006b0:	005b      	lsls	r3, r3, #1
200006b2:	18cb      	adds	r3, r1, r3
200006b4:	3305      	adds	r3, #5
200006b6:	781b      	ldrb	r3, [r3, #0]
200006b8:	0019      	movs	r1, r3
200006ba:	68bb      	ldr	r3, [r7, #8]
200006bc:	18cb      	adds	r3, r1, r3
      if ((offset1x + o1->geo->px[i].x == offset2x + o2->geo->px[j].x) &&
200006be:	429a      	cmp	r2, r3
200006c0:	d101      	bne.n	200006c6 <pixel_overlap+0x92>
        (offset1y + o1->geo->px[i].y == offset2y + o2->geo->px[j].y)) return 1;
200006c2:	2301      	movs	r3, #1
200006c4:	e012      	b.n	200006ec <pixel_overlap+0xb8>
    for (int j = 0; j < o2-> geo->numpoints; j++)
200006c6:	69bb      	ldr	r3, [r7, #24]
200006c8:	3301      	adds	r3, #1
200006ca:	61bb      	str	r3, [r7, #24]
200006cc:	683b      	ldr	r3, [r7, #0]
200006ce:	681b      	ldr	r3, [r3, #0]
200006d0:	681b      	ldr	r3, [r3, #0]
200006d2:	69ba      	ldr	r2, [r7, #24]
200006d4:	429a      	cmp	r2, r3
200006d6:	dbc4      	blt.n	20000662 <pixel_overlap+0x2e>
  for (int i = 0; i < o1->geo->numpoints; i++) {
200006d8:	69fb      	ldr	r3, [r7, #28]
200006da:	3301      	adds	r3, #1
200006dc:	61fb      	str	r3, [r7, #28]
200006de:	687b      	ldr	r3, [r7, #4]
200006e0:	681b      	ldr	r3, [r3, #0]
200006e2:	681b      	ldr	r3, [r3, #0]
200006e4:	69fa      	ldr	r2, [r7, #28]
200006e6:	429a      	cmp	r2, r3
200006e8:	dbb8      	blt.n	2000065c <pixel_overlap+0x28>
  }
  return 0;
200006ea:	2300      	movs	r3, #0
}
200006ec:	0018      	movs	r0, r3
200006ee:	46bd      	mov	sp, r7
200006f0:	b008      	add	sp, #32
200006f2:	bd80      	pop	{r7, pc}

200006f4 <object_collides>:

char object_collides(POBJECT o1, POBJECT o2)
{	
200006f4:	b580      	push	{r7, lr}
200006f6:	b082      	sub	sp, #8
200006f8:	af00      	add	r7, sp, #0
200006fa:	6078      	str	r0, [r7, #4]
200006fc:	6039      	str	r1, [r7, #0]
	// objects collides
	if (o1 -> posx == o2 -> posx && o1->posy == o2->posy) {
200006fe:	687b      	ldr	r3, [r7, #4]
20000700:	68da      	ldr	r2, [r3, #12]
20000702:	683b      	ldr	r3, [r7, #0]
20000704:	68db      	ldr	r3, [r3, #12]
20000706:	429a      	cmp	r2, r3
20000708:	d107      	bne.n	2000071a <object_collides+0x26>
2000070a:	687b      	ldr	r3, [r7, #4]
2000070c:	691a      	ldr	r2, [r3, #16]
2000070e:	683b      	ldr	r3, [r7, #0]
20000710:	691b      	ldr	r3, [r3, #16]
20000712:	429a      	cmp	r2, r3
20000714:	d101      	bne.n	2000071a <object_collides+0x26>
		return 1;
20000716:	2301      	movs	r3, #1
20000718:	e7ff      	b.n	2000071a <object_collides+0x26>
	}
}
2000071a:	0018      	movs	r0, r3
2000071c:	46bd      	mov	sp, r7
2000071e:	b002      	add	sp, #8
20000720:	bd80      	pop	{r7, pc}

20000722 <game_over>:
//FUNC.-------------------------------
char game_over(POBJECT snake)
{
20000722:	b580      	push	{r7, lr}
20000724:	b082      	sub	sp, #8
20000726:	af00      	add	r7, sp, #0
20000728:	6078      	str	r0, [r7, #4]
	if
	(snake->posx < 0 ||
2000072a:	687b      	ldr	r3, [r7, #4]
2000072c:	68db      	ldr	r3, [r3, #12]
2000072e:	2b00      	cmp	r3, #0
20000730:	db0b      	blt.n	2000074a <game_over+0x28>
	 snake->posx > SCREEN_WIDTH ||
20000732:	687b      	ldr	r3, [r7, #4]
20000734:	68db      	ldr	r3, [r3, #12]
	(snake->posx < 0 ||
20000736:	2b20      	cmp	r3, #32
20000738:	dc07      	bgt.n	2000074a <game_over+0x28>
	 snake->posy < 0 ||
2000073a:	687b      	ldr	r3, [r7, #4]
2000073c:	691b      	ldr	r3, [r3, #16]
	 snake->posx > SCREEN_WIDTH ||
2000073e:	2b00      	cmp	r3, #0
20000740:	db03      	blt.n	2000074a <game_over+0x28>
	 snake->posy > SCREEN_HEIGHT)
20000742:	687b      	ldr	r3, [r7, #4]
20000744:	691b      	ldr	r3, [r3, #16]
	 snake->posy < 0 ||
20000746:	2b10      	cmp	r3, #16
20000748:	dd01      	ble.n	2000074e <game_over+0x2c>
	{
		 return 1;
2000074a:	2301      	movs	r3, #1
2000074c:	e000      	b.n	20000750 <game_over+0x2e>
	}else return 0;
2000074e:	2300      	movs	r3, #0
}
20000750:	0018      	movs	r0, r3
20000752:	46bd      	mov	sp, r7
20000754:	b002      	add	sp, #8
20000756:	bd80      	pop	{r7, pc}

20000758 <main>:

//MAIN------------------------------
void main(void)
{
20000758:	b5b0      	push	{r4, r5, r7, lr}
2000075a:	b086      	sub	sp, #24
2000075c:	af00      	add	r7, sp, #0
	char c;
	POBJECT appleO = &apple;
2000075e:	4b3f      	ldr	r3, [pc, #252]	; (2000085c <main+0x104>)
20000760:	617b      	str	r3, [r7, #20]
	POBJECT snake_head = &snake;
20000762:	4b3f      	ldr	r3, [pc, #252]	; (20000860 <main+0x108>)
20000764:	613b      	str	r3, [r7, #16]
	// POBJECT snake_tail = snake_body;
	POBJECT tail[3];
	tail[0] = create_tail(tail[0], 2, 2);
20000766:	003b      	movs	r3, r7
20000768:	681b      	ldr	r3, [r3, #0]
2000076a:	2202      	movs	r2, #2
2000076c:	2102      	movs	r1, #2
2000076e:	0018      	movs	r0, r3
20000770:	f7ff ff35 	bl	200005de <create_tail>
20000774:	0002      	movs	r2, r0
20000776:	003b      	movs	r3, r7
20000778:	601a      	str	r2, [r3, #0]
	draw_object(tail[0]);
2000077a:	003b      	movs	r3, r7
2000077c:	681b      	ldr	r3, [r3, #0]
2000077e:	0018      	movs	r0, r3
20000780:	f7ff fe5c 	bl	2000043c <draw_object>
	
//DEFINED OBJ.------------------------
	
	init_app();
20000784:	f000 f94c 	bl	20000a20 <init_app>
	graphic_initalize();
20000788:	f7ff fe4c 	bl	20000424 <graphic_initalize>
	graphic_clear_screen();
2000078c:	f7ff fe50 	bl	20000430 <graphic_clear_screen>
	
	appleO -> draw(appleO);
20000790:	697b      	ldr	r3, [r7, #20]
20000792:	695b      	ldr	r3, [r3, #20]
20000794:	697a      	ldr	r2, [r7, #20]
20000796:	0010      	movs	r0, r2
20000798:	4798      	blx	r3
	while (!game_over(snake_head)) 
2000079a:	e047      	b.n	2000082c <main+0xd4>
	{
		snake_head -> move(snake_head);
2000079c:	693b      	ldr	r3, [r7, #16]
2000079e:	69db      	ldr	r3, [r3, #28]
200007a0:	693a      	ldr	r2, [r7, #16]
200007a2:	0010      	movs	r0, r2
200007a4:	4798      	blx	r3
		c = keyb();
200007a6:	250f      	movs	r5, #15
200007a8:	197c      	adds	r4, r7, r5
200007aa:	f000 f8bd 	bl	20000928 <keyb>
200007ae:	0003      	movs	r3, r0
200007b0:	7023      	strb	r3, [r4, #0]
		switch (c) { // movement
200007b2:	197b      	adds	r3, r7, r5
200007b4:	781b      	ldrb	r3, [r3, #0]
200007b6:	2b08      	cmp	r3, #8
200007b8:	d01f      	beq.n	200007fa <main+0xa2>
200007ba:	dc25      	bgt.n	20000808 <main+0xb0>
200007bc:	2b06      	cmp	r3, #6
200007be:	d005      	beq.n	200007cc <main+0x74>
200007c0:	dc22      	bgt.n	20000808 <main+0xb0>
200007c2:	2b02      	cmp	r3, #2
200007c4:	d011      	beq.n	200007ea <main+0x92>
200007c6:	2b04      	cmp	r3, #4
200007c8:	d007      	beq.n	200007da <main+0x82>
200007ca:	e01d      	b.n	20000808 <main+0xb0>
			// right
			case 6: snake_head -> set_speed(snake_head, MOVE_SPEED, 0); break;
200007cc:	693b      	ldr	r3, [r7, #16]
200007ce:	6a1b      	ldr	r3, [r3, #32]
200007d0:	6938      	ldr	r0, [r7, #16]
200007d2:	2200      	movs	r2, #0
200007d4:	2101      	movs	r1, #1
200007d6:	4798      	blx	r3
200007d8:	e016      	b.n	20000808 <main+0xb0>
			// left
			case 4: snake_head -> set_speed(snake_head, -MOVE_SPEED, 0); break;
200007da:	693b      	ldr	r3, [r7, #16]
200007dc:	6a1b      	ldr	r3, [r3, #32]
200007de:	2201      	movs	r2, #1
200007e0:	4251      	negs	r1, r2
200007e2:	6938      	ldr	r0, [r7, #16]
200007e4:	2200      	movs	r2, #0
200007e6:	4798      	blx	r3
200007e8:	e00e      	b.n	20000808 <main+0xb0>
			// up
			case 2: snake_head -> set_speed(snake_head, 0, -MOVE_SPEED); break;
200007ea:	693b      	ldr	r3, [r7, #16]
200007ec:	6a1b      	ldr	r3, [r3, #32]
200007ee:	2201      	movs	r2, #1
200007f0:	4252      	negs	r2, r2
200007f2:	6938      	ldr	r0, [r7, #16]
200007f4:	2100      	movs	r1, #0
200007f6:	4798      	blx	r3
200007f8:	e006      	b.n	20000808 <main+0xb0>
			// down
			case 8: snake_head -> set_speed(snake_head, 0, MOVE_SPEED); break;
200007fa:	693b      	ldr	r3, [r7, #16]
200007fc:	6a1b      	ldr	r3, [r3, #32]
200007fe:	6938      	ldr	r0, [r7, #16]
20000800:	2201      	movs	r2, #1
20000802:	2100      	movs	r1, #0
20000804:	4798      	blx	r3
20000806:	46c0      	nop			; (mov r8, r8)
		}
		
		if(object_collides(snake_head, appleO))
20000808:	697a      	ldr	r2, [r7, #20]
2000080a:	693b      	ldr	r3, [r7, #16]
2000080c:	0011      	movs	r1, r2
2000080e:	0018      	movs	r0, r3
20000810:	f7ff ff70 	bl	200006f4 <object_collides>
20000814:	1e03      	subs	r3, r0, #0
20000816:	d009      	beq.n	2000082c <main+0xd4>
		{
			appleO -> move(appleO);
20000818:	697b      	ldr	r3, [r7, #20]
2000081a:	69db      	ldr	r3, [r3, #28]
2000081c:	697a      	ldr	r2, [r7, #20]
2000081e:	0010      	movs	r0, r2
20000820:	4798      	blx	r3
			points++;
20000822:	4b10      	ldr	r3, [pc, #64]	; (20000864 <main+0x10c>)
20000824:	681b      	ldr	r3, [r3, #0]
20000826:	1c5a      	adds	r2, r3, #1
20000828:	4b0e      	ldr	r3, [pc, #56]	; (20000864 <main+0x10c>)
2000082a:	601a      	str	r2, [r3, #0]
	while (!game_over(snake_head)) 
2000082c:	693b      	ldr	r3, [r7, #16]
2000082e:	0018      	movs	r0, r3
20000830:	f7ff ff77 	bl	20000722 <game_over>
20000834:	1e03      	subs	r3, r0, #0
20000836:	d0b1      	beq.n	2000079c <main+0x44>
		}
	}
	delay_milli(1000);
20000838:	23fa      	movs	r3, #250	; 0xfa
2000083a:	009b      	lsls	r3, r3, #2
2000083c:	0018      	movs	r0, r3
2000083e:	f7ff fc2f 	bl	200000a0 <delay_milli>
	graphic_clear_screen();
20000842:	f7ff fdf5 	bl	20000430 <graphic_clear_screen>
	write_ascii("Game over", "");
20000846:	4a08      	ldr	r2, [pc, #32]	; (20000868 <main+0x110>)
20000848:	4b08      	ldr	r3, [pc, #32]	; (2000086c <main+0x114>)
2000084a:	0011      	movs	r1, r2
2000084c:	0018      	movs	r0, r3
2000084e:	f7ff fdb9 	bl	200003c4 <write_ascii>
}
20000852:	46c0      	nop			; (mov r8, r8)
20000854:	46bd      	mov	sp, r7
20000856:	b006      	add	sp, #24
20000858:	bdb0      	pop	{r4, r5, r7, pc}
2000085a:	46c0      	nop			; (mov r8, r8)
2000085c:	20006d60 	andcs	r6, r0, r0, ror #26
20000860:	20003d30 	andcs	r3, r0, r0, lsr sp
20000864:	20009db0 			; <UNDEFINED> instruction: 0x20009db0
20000868:	20009d90 	mulcs	r0, r0, sp
2000086c:	20009d94 	mulcs	r0, r4, sp

20000870 <activateRow>:
20000870:	b580      	push	{r7, lr}
20000872:	b082      	sub	sp, #8
20000874:	af00      	add	r7, sp, #0
20000876:	6078      	str	r0, [r7, #4]
20000878:	687b      	ldr	r3, [r7, #4]
2000087a:	2b04      	cmp	r3, #4
2000087c:	d01b      	beq.n	200008b6 <activateRow+0x46>
2000087e:	687b      	ldr	r3, [r7, #4]
20000880:	2b04      	cmp	r3, #4
20000882:	d81c      	bhi.n	200008be <activateRow+0x4e>
20000884:	687b      	ldr	r3, [r7, #4]
20000886:	2b03      	cmp	r3, #3
20000888:	d011      	beq.n	200008ae <activateRow+0x3e>
2000088a:	687b      	ldr	r3, [r7, #4]
2000088c:	2b03      	cmp	r3, #3
2000088e:	d816      	bhi.n	200008be <activateRow+0x4e>
20000890:	687b      	ldr	r3, [r7, #4]
20000892:	2b01      	cmp	r3, #1
20000894:	d003      	beq.n	2000089e <activateRow+0x2e>
20000896:	687b      	ldr	r3, [r7, #4]
20000898:	2b02      	cmp	r3, #2
2000089a:	d004      	beq.n	200008a6 <activateRow+0x36>
2000089c:	e00f      	b.n	200008be <activateRow+0x4e>
2000089e:	4b0c      	ldr	r3, [pc, #48]	; (200008d0 <activateRow+0x60>)
200008a0:	2210      	movs	r2, #16
200008a2:	755a      	strb	r2, [r3, #21]
200008a4:	e00f      	b.n	200008c6 <activateRow+0x56>
200008a6:	4b0a      	ldr	r3, [pc, #40]	; (200008d0 <activateRow+0x60>)
200008a8:	2220      	movs	r2, #32
200008aa:	755a      	strb	r2, [r3, #21]
200008ac:	e00b      	b.n	200008c6 <activateRow+0x56>
200008ae:	4b08      	ldr	r3, [pc, #32]	; (200008d0 <activateRow+0x60>)
200008b0:	2240      	movs	r2, #64	; 0x40
200008b2:	755a      	strb	r2, [r3, #21]
200008b4:	e007      	b.n	200008c6 <activateRow+0x56>
200008b6:	4b06      	ldr	r3, [pc, #24]	; (200008d0 <activateRow+0x60>)
200008b8:	2280      	movs	r2, #128	; 0x80
200008ba:	755a      	strb	r2, [r3, #21]
200008bc:	e003      	b.n	200008c6 <activateRow+0x56>
200008be:	4b04      	ldr	r3, [pc, #16]	; (200008d0 <activateRow+0x60>)
200008c0:	2200      	movs	r2, #0
200008c2:	755a      	strb	r2, [r3, #21]
200008c4:	46c0      	nop			; (mov r8, r8)
200008c6:	46c0      	nop			; (mov r8, r8)
200008c8:	46bd      	mov	sp, r7
200008ca:	b002      	add	sp, #8
200008cc:	bd80      	pop	{r7, pc}
200008ce:	46c0      	nop			; (mov r8, r8)
200008d0:	40020c00 	andmi	r0, r2, r0, lsl #24

200008d4 <readCol>:
200008d4:	b580      	push	{r7, lr}
200008d6:	b082      	sub	sp, #8
200008d8:	af00      	add	r7, sp, #0
200008da:	4a12      	ldr	r2, [pc, #72]	; (20000924 <readCol+0x50>)
200008dc:	1dfb      	adds	r3, r7, #7
200008de:	7c52      	ldrb	r2, [r2, #17]
200008e0:	701a      	strb	r2, [r3, #0]
200008e2:	1dfb      	adds	r3, r7, #7
200008e4:	781b      	ldrb	r3, [r3, #0]
200008e6:	2208      	movs	r2, #8
200008e8:	4013      	ands	r3, r2
200008ea:	d001      	beq.n	200008f0 <readCol+0x1c>
200008ec:	2304      	movs	r3, #4
200008ee:	e015      	b.n	2000091c <readCol+0x48>
200008f0:	1dfb      	adds	r3, r7, #7
200008f2:	781b      	ldrb	r3, [r3, #0]
200008f4:	2204      	movs	r2, #4
200008f6:	4013      	ands	r3, r2
200008f8:	d001      	beq.n	200008fe <readCol+0x2a>
200008fa:	2303      	movs	r3, #3
200008fc:	e00e      	b.n	2000091c <readCol+0x48>
200008fe:	1dfb      	adds	r3, r7, #7
20000900:	781b      	ldrb	r3, [r3, #0]
20000902:	2202      	movs	r2, #2
20000904:	4013      	ands	r3, r2
20000906:	d001      	beq.n	2000090c <readCol+0x38>
20000908:	2302      	movs	r3, #2
2000090a:	e007      	b.n	2000091c <readCol+0x48>
2000090c:	1dfb      	adds	r3, r7, #7
2000090e:	781b      	ldrb	r3, [r3, #0]
20000910:	2201      	movs	r2, #1
20000912:	4013      	ands	r3, r2
20000914:	d001      	beq.n	2000091a <readCol+0x46>
20000916:	2301      	movs	r3, #1
20000918:	e000      	b.n	2000091c <readCol+0x48>
2000091a:	2300      	movs	r3, #0
2000091c:	0018      	movs	r0, r3
2000091e:	46bd      	mov	sp, r7
20000920:	b002      	add	sp, #8
20000922:	bd80      	pop	{r7, pc}
20000924:	40020c00 	andmi	r0, r2, r0, lsl #24

20000928 <keyb>:
20000928:	b590      	push	{r4, r7, lr}
2000092a:	b087      	sub	sp, #28
2000092c:	af00      	add	r7, sp, #0
2000092e:	003b      	movs	r3, r7
20000930:	4a16      	ldr	r2, [pc, #88]	; (2000098c <keyb+0x64>)
20000932:	ca13      	ldmia	r2!, {r0, r1, r4}
20000934:	c313      	stmia	r3!, {r0, r1, r4}
20000936:	6812      	ldr	r2, [r2, #0]
20000938:	601a      	str	r2, [r3, #0]
2000093a:	2301      	movs	r3, #1
2000093c:	617b      	str	r3, [r7, #20]
2000093e:	e019      	b.n	20000974 <keyb+0x4c>
20000940:	697b      	ldr	r3, [r7, #20]
20000942:	0018      	movs	r0, r3
20000944:	f7ff ff94 	bl	20000870 <activateRow>
20000948:	f7ff ffc4 	bl	200008d4 <readCol>
2000094c:	0003      	movs	r3, r0
2000094e:	613b      	str	r3, [r7, #16]
20000950:	693b      	ldr	r3, [r7, #16]
20000952:	2b00      	cmp	r3, #0
20000954:	d00b      	beq.n	2000096e <keyb+0x46>
20000956:	2000      	movs	r0, #0
20000958:	f7ff ff8a 	bl	20000870 <activateRow>
2000095c:	697b      	ldr	r3, [r7, #20]
2000095e:	3b01      	subs	r3, #1
20000960:	009a      	lsls	r2, r3, #2
20000962:	693b      	ldr	r3, [r7, #16]
20000964:	3b01      	subs	r3, #1
20000966:	18d3      	adds	r3, r2, r3
20000968:	003a      	movs	r2, r7
2000096a:	5cd3      	ldrb	r3, [r2, r3]
2000096c:	e009      	b.n	20000982 <keyb+0x5a>
2000096e:	697b      	ldr	r3, [r7, #20]
20000970:	3301      	adds	r3, #1
20000972:	617b      	str	r3, [r7, #20]
20000974:	697b      	ldr	r3, [r7, #20]
20000976:	2b04      	cmp	r3, #4
20000978:	dde2      	ble.n	20000940 <keyb+0x18>
2000097a:	2000      	movs	r0, #0
2000097c:	f7ff ff78 	bl	20000870 <activateRow>
20000980:	23ff      	movs	r3, #255	; 0xff
20000982:	0018      	movs	r0, r3
20000984:	46bd      	mov	sp, r7
20000986:	b007      	add	sp, #28
20000988:	bd90      	pop	{r4, r7, pc}
2000098a:	46c0      	nop			; (mov r8, r8)
2000098c:	20009da0 	andcs	r9, r0, r0, lsr #27

20000990 <init_keypad>:
20000990:	b580      	push	{r7, lr}
20000992:	af00      	add	r7, sp, #0
20000994:	4b08      	ldr	r3, [pc, #32]	; (200009b8 <init_keypad+0x28>)
20000996:	22aa      	movs	r2, #170	; 0xaa
20000998:	05d2      	lsls	r2, r2, #23
2000099a:	601a      	str	r2, [r3, #0]
2000099c:	4b06      	ldr	r3, [pc, #24]	; (200009b8 <init_keypad+0x28>)
2000099e:	2200      	movs	r2, #0
200009a0:	809a      	strh	r2, [r3, #4]
200009a2:	4b05      	ldr	r3, [pc, #20]	; (200009b8 <init_keypad+0x28>)
200009a4:	22aa      	movs	r2, #170	; 0xaa
200009a6:	0412      	lsls	r2, r2, #16
200009a8:	60da      	str	r2, [r3, #12]
200009aa:	4b03      	ldr	r3, [pc, #12]	; (200009b8 <init_keypad+0x28>)
200009ac:	22ff      	movs	r2, #255	; 0xff
200009ae:	0612      	lsls	r2, r2, #24
200009b0:	609a      	str	r2, [r3, #8]
200009b2:	46c0      	nop			; (mov r8, r8)
200009b4:	46bd      	mov	sp, r7
200009b6:	bd80      	pop	{r7, pc}
200009b8:	40020c00 	andmi	r0, r2, r0, lsl #24

200009bc <init_ascii>:
200009bc:	b580      	push	{r7, lr}
200009be:	af00      	add	r7, sp, #0
200009c0:	4b05      	ldr	r3, [pc, #20]	; (200009d8 <init_ascii+0x1c>)
200009c2:	4a06      	ldr	r2, [pc, #24]	; (200009dc <init_ascii+0x20>)
200009c4:	601a      	str	r2, [r3, #0]
200009c6:	4b04      	ldr	r3, [pc, #16]	; (200009d8 <init_ascii+0x1c>)
200009c8:	4a05      	ldr	r2, [pc, #20]	; (200009e0 <init_ascii+0x24>)
200009ca:	60da      	str	r2, [r3, #12]
200009cc:	4b02      	ldr	r3, [pc, #8]	; (200009d8 <init_ascii+0x1c>)
200009ce:	2200      	movs	r2, #0
200009d0:	809a      	strh	r2, [r3, #4]
200009d2:	46c0      	nop			; (mov r8, r8)
200009d4:	46bd      	mov	sp, r7
200009d6:	bd80      	pop	{r7, pc}
200009d8:	40021000 	andmi	r1, r2, r0
200009dc:	55555555 	ldrbpl	r5, [r5, #-1365]	; 0xfffffaab
200009e0:	55550000 	ldrbpl	r0, [r5, #-0]

200009e4 <init_timer6>:
200009e4:	b580      	push	{r7, lr}
200009e6:	af00      	add	r7, sp, #0
200009e8:	4b0b      	ldr	r3, [pc, #44]	; (20000a18 <init_timer6+0x34>)
200009ea:	881b      	ldrh	r3, [r3, #0]
200009ec:	b29b      	uxth	r3, r3
200009ee:	4a0a      	ldr	r2, [pc, #40]	; (20000a18 <init_timer6+0x34>)
200009f0:	2101      	movs	r1, #1
200009f2:	438b      	bics	r3, r1
200009f4:	b29b      	uxth	r3, r3
200009f6:	8013      	strh	r3, [r2, #0]
200009f8:	4b08      	ldr	r3, [pc, #32]	; (20000a1c <init_timer6+0x38>)
200009fa:	2201      	movs	r2, #1
200009fc:	4252      	negs	r2, r2
200009fe:	801a      	strh	r2, [r3, #0]
20000a00:	4b05      	ldr	r3, [pc, #20]	; (20000a18 <init_timer6+0x34>)
20000a02:	881b      	ldrh	r3, [r3, #0]
20000a04:	b29b      	uxth	r3, r3
20000a06:	4a04      	ldr	r2, [pc, #16]	; (20000a18 <init_timer6+0x34>)
20000a08:	2103      	movs	r1, #3
20000a0a:	430b      	orrs	r3, r1
20000a0c:	b29b      	uxth	r3, r3
20000a0e:	8013      	strh	r3, [r2, #0]
20000a10:	46c0      	nop			; (mov r8, r8)
20000a12:	46bd      	mov	sp, r7
20000a14:	bd80      	pop	{r7, pc}
20000a16:	46c0      	nop			; (mov r8, r8)
20000a18:	40001000 	andmi	r1, r0, r0
20000a1c:	4000102c 	andmi	r1, r0, ip, lsr #32

20000a20 <init_app>:
20000a20:	b580      	push	{r7, lr}
20000a22:	af00      	add	r7, sp, #0
20000a24:	f7ff ffb4 	bl	20000990 <init_keypad>
20000a28:	f7ff ffc8 	bl	200009bc <init_ascii>
20000a2c:	f7ff ffda 	bl	200009e4 <init_timer6>
20000a30:	46c0      	nop			; (mov r8, r8)
20000a32:	46bd      	mov	sp, r7
20000a34:	bd80      	pop	{r7, pc}
20000a36:	46c0      	nop			; (mov r8, r8)

20000a38 <__udivsi3>:
20000a38:	2200      	movs	r2, #0
20000a3a:	0843      	lsrs	r3, r0, #1
20000a3c:	428b      	cmp	r3, r1
20000a3e:	d374      	bcc.n	20000b2a <__udivsi3+0xf2>
20000a40:	0903      	lsrs	r3, r0, #4
20000a42:	428b      	cmp	r3, r1
20000a44:	d35f      	bcc.n	20000b06 <__udivsi3+0xce>
20000a46:	0a03      	lsrs	r3, r0, #8
20000a48:	428b      	cmp	r3, r1
20000a4a:	d344      	bcc.n	20000ad6 <__udivsi3+0x9e>
20000a4c:	0b03      	lsrs	r3, r0, #12
20000a4e:	428b      	cmp	r3, r1
20000a50:	d328      	bcc.n	20000aa4 <__udivsi3+0x6c>
20000a52:	0c03      	lsrs	r3, r0, #16
20000a54:	428b      	cmp	r3, r1
20000a56:	d30d      	bcc.n	20000a74 <__udivsi3+0x3c>
20000a58:	22ff      	movs	r2, #255	; 0xff
20000a5a:	0209      	lsls	r1, r1, #8
20000a5c:	ba12      	rev	r2, r2
20000a5e:	0c03      	lsrs	r3, r0, #16
20000a60:	428b      	cmp	r3, r1
20000a62:	d302      	bcc.n	20000a6a <__udivsi3+0x32>
20000a64:	1212      	asrs	r2, r2, #8
20000a66:	0209      	lsls	r1, r1, #8
20000a68:	d065      	beq.n	20000b36 <__udivsi3+0xfe>
20000a6a:	0b03      	lsrs	r3, r0, #12
20000a6c:	428b      	cmp	r3, r1
20000a6e:	d319      	bcc.n	20000aa4 <__udivsi3+0x6c>
20000a70:	e000      	b.n	20000a74 <__udivsi3+0x3c>
20000a72:	0a09      	lsrs	r1, r1, #8
20000a74:	0bc3      	lsrs	r3, r0, #15
20000a76:	428b      	cmp	r3, r1
20000a78:	d301      	bcc.n	20000a7e <__udivsi3+0x46>
20000a7a:	03cb      	lsls	r3, r1, #15
20000a7c:	1ac0      	subs	r0, r0, r3
20000a7e:	4152      	adcs	r2, r2
20000a80:	0b83      	lsrs	r3, r0, #14
20000a82:	428b      	cmp	r3, r1
20000a84:	d301      	bcc.n	20000a8a <__udivsi3+0x52>
20000a86:	038b      	lsls	r3, r1, #14
20000a88:	1ac0      	subs	r0, r0, r3
20000a8a:	4152      	adcs	r2, r2
20000a8c:	0b43      	lsrs	r3, r0, #13
20000a8e:	428b      	cmp	r3, r1
20000a90:	d301      	bcc.n	20000a96 <__udivsi3+0x5e>
20000a92:	034b      	lsls	r3, r1, #13
20000a94:	1ac0      	subs	r0, r0, r3
20000a96:	4152      	adcs	r2, r2
20000a98:	0b03      	lsrs	r3, r0, #12
20000a9a:	428b      	cmp	r3, r1
20000a9c:	d301      	bcc.n	20000aa2 <__udivsi3+0x6a>
20000a9e:	030b      	lsls	r3, r1, #12
20000aa0:	1ac0      	subs	r0, r0, r3
20000aa2:	4152      	adcs	r2, r2
20000aa4:	0ac3      	lsrs	r3, r0, #11
20000aa6:	428b      	cmp	r3, r1
20000aa8:	d301      	bcc.n	20000aae <__udivsi3+0x76>
20000aaa:	02cb      	lsls	r3, r1, #11
20000aac:	1ac0      	subs	r0, r0, r3
20000aae:	4152      	adcs	r2, r2
20000ab0:	0a83      	lsrs	r3, r0, #10
20000ab2:	428b      	cmp	r3, r1
20000ab4:	d301      	bcc.n	20000aba <__udivsi3+0x82>
20000ab6:	028b      	lsls	r3, r1, #10
20000ab8:	1ac0      	subs	r0, r0, r3
20000aba:	4152      	adcs	r2, r2
20000abc:	0a43      	lsrs	r3, r0, #9
20000abe:	428b      	cmp	r3, r1
20000ac0:	d301      	bcc.n	20000ac6 <__udivsi3+0x8e>
20000ac2:	024b      	lsls	r3, r1, #9
20000ac4:	1ac0      	subs	r0, r0, r3
20000ac6:	4152      	adcs	r2, r2
20000ac8:	0a03      	lsrs	r3, r0, #8
20000aca:	428b      	cmp	r3, r1
20000acc:	d301      	bcc.n	20000ad2 <__udivsi3+0x9a>
20000ace:	020b      	lsls	r3, r1, #8
20000ad0:	1ac0      	subs	r0, r0, r3
20000ad2:	4152      	adcs	r2, r2
20000ad4:	d2cd      	bcs.n	20000a72 <__udivsi3+0x3a>
20000ad6:	09c3      	lsrs	r3, r0, #7
20000ad8:	428b      	cmp	r3, r1
20000ada:	d301      	bcc.n	20000ae0 <__udivsi3+0xa8>
20000adc:	01cb      	lsls	r3, r1, #7
20000ade:	1ac0      	subs	r0, r0, r3
20000ae0:	4152      	adcs	r2, r2
20000ae2:	0983      	lsrs	r3, r0, #6
20000ae4:	428b      	cmp	r3, r1
20000ae6:	d301      	bcc.n	20000aec <__udivsi3+0xb4>
20000ae8:	018b      	lsls	r3, r1, #6
20000aea:	1ac0      	subs	r0, r0, r3
20000aec:	4152      	adcs	r2, r2
20000aee:	0943      	lsrs	r3, r0, #5
20000af0:	428b      	cmp	r3, r1
20000af2:	d301      	bcc.n	20000af8 <__udivsi3+0xc0>
20000af4:	014b      	lsls	r3, r1, #5
20000af6:	1ac0      	subs	r0, r0, r3
20000af8:	4152      	adcs	r2, r2
20000afa:	0903      	lsrs	r3, r0, #4
20000afc:	428b      	cmp	r3, r1
20000afe:	d301      	bcc.n	20000b04 <__udivsi3+0xcc>
20000b00:	010b      	lsls	r3, r1, #4
20000b02:	1ac0      	subs	r0, r0, r3
20000b04:	4152      	adcs	r2, r2
20000b06:	08c3      	lsrs	r3, r0, #3
20000b08:	428b      	cmp	r3, r1
20000b0a:	d301      	bcc.n	20000b10 <__udivsi3+0xd8>
20000b0c:	00cb      	lsls	r3, r1, #3
20000b0e:	1ac0      	subs	r0, r0, r3
20000b10:	4152      	adcs	r2, r2
20000b12:	0883      	lsrs	r3, r0, #2
20000b14:	428b      	cmp	r3, r1
20000b16:	d301      	bcc.n	20000b1c <__udivsi3+0xe4>
20000b18:	008b      	lsls	r3, r1, #2
20000b1a:	1ac0      	subs	r0, r0, r3
20000b1c:	4152      	adcs	r2, r2
20000b1e:	0843      	lsrs	r3, r0, #1
20000b20:	428b      	cmp	r3, r1
20000b22:	d301      	bcc.n	20000b28 <__udivsi3+0xf0>
20000b24:	004b      	lsls	r3, r1, #1
20000b26:	1ac0      	subs	r0, r0, r3
20000b28:	4152      	adcs	r2, r2
20000b2a:	1a41      	subs	r1, r0, r1
20000b2c:	d200      	bcs.n	20000b30 <__udivsi3+0xf8>
20000b2e:	4601      	mov	r1, r0
20000b30:	4152      	adcs	r2, r2
20000b32:	4610      	mov	r0, r2
20000b34:	4770      	bx	lr
20000b36:	e7ff      	b.n	20000b38 <__udivsi3+0x100>
20000b38:	b501      	push	{r0, lr}
20000b3a:	2000      	movs	r0, #0
20000b3c:	f000 f8f0 	bl	20000d20 <__aeabi_idiv0>
20000b40:	bd02      	pop	{r1, pc}
20000b42:	46c0      	nop			; (mov r8, r8)

20000b44 <__aeabi_uidivmod>:
20000b44:	2900      	cmp	r1, #0
20000b46:	d0f7      	beq.n	20000b38 <__udivsi3+0x100>
20000b48:	e776      	b.n	20000a38 <__udivsi3>
20000b4a:	4770      	bx	lr

20000b4c <__divsi3>:
20000b4c:	4603      	mov	r3, r0
20000b4e:	430b      	orrs	r3, r1
20000b50:	d47f      	bmi.n	20000c52 <__divsi3+0x106>
20000b52:	2200      	movs	r2, #0
20000b54:	0843      	lsrs	r3, r0, #1
20000b56:	428b      	cmp	r3, r1
20000b58:	d374      	bcc.n	20000c44 <__divsi3+0xf8>
20000b5a:	0903      	lsrs	r3, r0, #4
20000b5c:	428b      	cmp	r3, r1
20000b5e:	d35f      	bcc.n	20000c20 <__divsi3+0xd4>
20000b60:	0a03      	lsrs	r3, r0, #8
20000b62:	428b      	cmp	r3, r1
20000b64:	d344      	bcc.n	20000bf0 <__divsi3+0xa4>
20000b66:	0b03      	lsrs	r3, r0, #12
20000b68:	428b      	cmp	r3, r1
20000b6a:	d328      	bcc.n	20000bbe <__divsi3+0x72>
20000b6c:	0c03      	lsrs	r3, r0, #16
20000b6e:	428b      	cmp	r3, r1
20000b70:	d30d      	bcc.n	20000b8e <__divsi3+0x42>
20000b72:	22ff      	movs	r2, #255	; 0xff
20000b74:	0209      	lsls	r1, r1, #8
20000b76:	ba12      	rev	r2, r2
20000b78:	0c03      	lsrs	r3, r0, #16
20000b7a:	428b      	cmp	r3, r1
20000b7c:	d302      	bcc.n	20000b84 <__divsi3+0x38>
20000b7e:	1212      	asrs	r2, r2, #8
20000b80:	0209      	lsls	r1, r1, #8
20000b82:	d065      	beq.n	20000c50 <__divsi3+0x104>
20000b84:	0b03      	lsrs	r3, r0, #12
20000b86:	428b      	cmp	r3, r1
20000b88:	d319      	bcc.n	20000bbe <__divsi3+0x72>
20000b8a:	e000      	b.n	20000b8e <__divsi3+0x42>
20000b8c:	0a09      	lsrs	r1, r1, #8
20000b8e:	0bc3      	lsrs	r3, r0, #15
20000b90:	428b      	cmp	r3, r1
20000b92:	d301      	bcc.n	20000b98 <__divsi3+0x4c>
20000b94:	03cb      	lsls	r3, r1, #15
20000b96:	1ac0      	subs	r0, r0, r3
20000b98:	4152      	adcs	r2, r2
20000b9a:	0b83      	lsrs	r3, r0, #14
20000b9c:	428b      	cmp	r3, r1
20000b9e:	d301      	bcc.n	20000ba4 <__divsi3+0x58>
20000ba0:	038b      	lsls	r3, r1, #14
20000ba2:	1ac0      	subs	r0, r0, r3
20000ba4:	4152      	adcs	r2, r2
20000ba6:	0b43      	lsrs	r3, r0, #13
20000ba8:	428b      	cmp	r3, r1
20000baa:	d301      	bcc.n	20000bb0 <__divsi3+0x64>
20000bac:	034b      	lsls	r3, r1, #13
20000bae:	1ac0      	subs	r0, r0, r3
20000bb0:	4152      	adcs	r2, r2
20000bb2:	0b03      	lsrs	r3, r0, #12
20000bb4:	428b      	cmp	r3, r1
20000bb6:	d301      	bcc.n	20000bbc <__divsi3+0x70>
20000bb8:	030b      	lsls	r3, r1, #12
20000bba:	1ac0      	subs	r0, r0, r3
20000bbc:	4152      	adcs	r2, r2
20000bbe:	0ac3      	lsrs	r3, r0, #11
20000bc0:	428b      	cmp	r3, r1
20000bc2:	d301      	bcc.n	20000bc8 <__divsi3+0x7c>
20000bc4:	02cb      	lsls	r3, r1, #11
20000bc6:	1ac0      	subs	r0, r0, r3
20000bc8:	4152      	adcs	r2, r2
20000bca:	0a83      	lsrs	r3, r0, #10
20000bcc:	428b      	cmp	r3, r1
20000bce:	d301      	bcc.n	20000bd4 <__divsi3+0x88>
20000bd0:	028b      	lsls	r3, r1, #10
20000bd2:	1ac0      	subs	r0, r0, r3
20000bd4:	4152      	adcs	r2, r2
20000bd6:	0a43      	lsrs	r3, r0, #9
20000bd8:	428b      	cmp	r3, r1
20000bda:	d301      	bcc.n	20000be0 <__divsi3+0x94>
20000bdc:	024b      	lsls	r3, r1, #9
20000bde:	1ac0      	subs	r0, r0, r3
20000be0:	4152      	adcs	r2, r2
20000be2:	0a03      	lsrs	r3, r0, #8
20000be4:	428b      	cmp	r3, r1
20000be6:	d301      	bcc.n	20000bec <__divsi3+0xa0>
20000be8:	020b      	lsls	r3, r1, #8
20000bea:	1ac0      	subs	r0, r0, r3
20000bec:	4152      	adcs	r2, r2
20000bee:	d2cd      	bcs.n	20000b8c <__divsi3+0x40>
20000bf0:	09c3      	lsrs	r3, r0, #7
20000bf2:	428b      	cmp	r3, r1
20000bf4:	d301      	bcc.n	20000bfa <__divsi3+0xae>
20000bf6:	01cb      	lsls	r3, r1, #7
20000bf8:	1ac0      	subs	r0, r0, r3
20000bfa:	4152      	adcs	r2, r2
20000bfc:	0983      	lsrs	r3, r0, #6
20000bfe:	428b      	cmp	r3, r1
20000c00:	d301      	bcc.n	20000c06 <__divsi3+0xba>
20000c02:	018b      	lsls	r3, r1, #6
20000c04:	1ac0      	subs	r0, r0, r3
20000c06:	4152      	adcs	r2, r2
20000c08:	0943      	lsrs	r3, r0, #5
20000c0a:	428b      	cmp	r3, r1
20000c0c:	d301      	bcc.n	20000c12 <__divsi3+0xc6>
20000c0e:	014b      	lsls	r3, r1, #5
20000c10:	1ac0      	subs	r0, r0, r3
20000c12:	4152      	adcs	r2, r2
20000c14:	0903      	lsrs	r3, r0, #4
20000c16:	428b      	cmp	r3, r1
20000c18:	d301      	bcc.n	20000c1e <__divsi3+0xd2>
20000c1a:	010b      	lsls	r3, r1, #4
20000c1c:	1ac0      	subs	r0, r0, r3
20000c1e:	4152      	adcs	r2, r2
20000c20:	08c3      	lsrs	r3, r0, #3
20000c22:	428b      	cmp	r3, r1
20000c24:	d301      	bcc.n	20000c2a <__divsi3+0xde>
20000c26:	00cb      	lsls	r3, r1, #3
20000c28:	1ac0      	subs	r0, r0, r3
20000c2a:	4152      	adcs	r2, r2
20000c2c:	0883      	lsrs	r3, r0, #2
20000c2e:	428b      	cmp	r3, r1
20000c30:	d301      	bcc.n	20000c36 <__divsi3+0xea>
20000c32:	008b      	lsls	r3, r1, #2
20000c34:	1ac0      	subs	r0, r0, r3
20000c36:	4152      	adcs	r2, r2
20000c38:	0843      	lsrs	r3, r0, #1
20000c3a:	428b      	cmp	r3, r1
20000c3c:	d301      	bcc.n	20000c42 <__divsi3+0xf6>
20000c3e:	004b      	lsls	r3, r1, #1
20000c40:	1ac0      	subs	r0, r0, r3
20000c42:	4152      	adcs	r2, r2
20000c44:	1a41      	subs	r1, r0, r1
20000c46:	d200      	bcs.n	20000c4a <__divsi3+0xfe>
20000c48:	4601      	mov	r1, r0
20000c4a:	4152      	adcs	r2, r2
20000c4c:	4610      	mov	r0, r2
20000c4e:	4770      	bx	lr
20000c50:	e05d      	b.n	20000d0e <__divsi3+0x1c2>
20000c52:	0fca      	lsrs	r2, r1, #31
20000c54:	d000      	beq.n	20000c58 <__divsi3+0x10c>
20000c56:	4249      	negs	r1, r1
20000c58:	1003      	asrs	r3, r0, #32
20000c5a:	d300      	bcc.n	20000c5e <__divsi3+0x112>
20000c5c:	4240      	negs	r0, r0
20000c5e:	4053      	eors	r3, r2
20000c60:	2200      	movs	r2, #0
20000c62:	469c      	mov	ip, r3
20000c64:	0903      	lsrs	r3, r0, #4
20000c66:	428b      	cmp	r3, r1
20000c68:	d32d      	bcc.n	20000cc6 <__divsi3+0x17a>
20000c6a:	0a03      	lsrs	r3, r0, #8
20000c6c:	428b      	cmp	r3, r1
20000c6e:	d312      	bcc.n	20000c96 <__divsi3+0x14a>
20000c70:	22fc      	movs	r2, #252	; 0xfc
20000c72:	0189      	lsls	r1, r1, #6
20000c74:	ba12      	rev	r2, r2
20000c76:	0a03      	lsrs	r3, r0, #8
20000c78:	428b      	cmp	r3, r1
20000c7a:	d30c      	bcc.n	20000c96 <__divsi3+0x14a>
20000c7c:	0189      	lsls	r1, r1, #6
20000c7e:	1192      	asrs	r2, r2, #6
20000c80:	428b      	cmp	r3, r1
20000c82:	d308      	bcc.n	20000c96 <__divsi3+0x14a>
20000c84:	0189      	lsls	r1, r1, #6
20000c86:	1192      	asrs	r2, r2, #6
20000c88:	428b      	cmp	r3, r1
20000c8a:	d304      	bcc.n	20000c96 <__divsi3+0x14a>
20000c8c:	0189      	lsls	r1, r1, #6
20000c8e:	d03a      	beq.n	20000d06 <__divsi3+0x1ba>
20000c90:	1192      	asrs	r2, r2, #6
20000c92:	e000      	b.n	20000c96 <__divsi3+0x14a>
20000c94:	0989      	lsrs	r1, r1, #6
20000c96:	09c3      	lsrs	r3, r0, #7
20000c98:	428b      	cmp	r3, r1
20000c9a:	d301      	bcc.n	20000ca0 <__divsi3+0x154>
20000c9c:	01cb      	lsls	r3, r1, #7
20000c9e:	1ac0      	subs	r0, r0, r3
20000ca0:	4152      	adcs	r2, r2
20000ca2:	0983      	lsrs	r3, r0, #6
20000ca4:	428b      	cmp	r3, r1
20000ca6:	d301      	bcc.n	20000cac <__divsi3+0x160>
20000ca8:	018b      	lsls	r3, r1, #6
20000caa:	1ac0      	subs	r0, r0, r3
20000cac:	4152      	adcs	r2, r2
20000cae:	0943      	lsrs	r3, r0, #5
20000cb0:	428b      	cmp	r3, r1
20000cb2:	d301      	bcc.n	20000cb8 <__divsi3+0x16c>
20000cb4:	014b      	lsls	r3, r1, #5
20000cb6:	1ac0      	subs	r0, r0, r3
20000cb8:	4152      	adcs	r2, r2
20000cba:	0903      	lsrs	r3, r0, #4
20000cbc:	428b      	cmp	r3, r1
20000cbe:	d301      	bcc.n	20000cc4 <__divsi3+0x178>
20000cc0:	010b      	lsls	r3, r1, #4
20000cc2:	1ac0      	subs	r0, r0, r3
20000cc4:	4152      	adcs	r2, r2
20000cc6:	08c3      	lsrs	r3, r0, #3
20000cc8:	428b      	cmp	r3, r1
20000cca:	d301      	bcc.n	20000cd0 <__divsi3+0x184>
20000ccc:	00cb      	lsls	r3, r1, #3
20000cce:	1ac0      	subs	r0, r0, r3
20000cd0:	4152      	adcs	r2, r2
20000cd2:	0883      	lsrs	r3, r0, #2
20000cd4:	428b      	cmp	r3, r1
20000cd6:	d301      	bcc.n	20000cdc <__divsi3+0x190>
20000cd8:	008b      	lsls	r3, r1, #2
20000cda:	1ac0      	subs	r0, r0, r3
20000cdc:	4152      	adcs	r2, r2
20000cde:	d2d9      	bcs.n	20000c94 <__divsi3+0x148>
20000ce0:	0843      	lsrs	r3, r0, #1
20000ce2:	428b      	cmp	r3, r1
20000ce4:	d301      	bcc.n	20000cea <__divsi3+0x19e>
20000ce6:	004b      	lsls	r3, r1, #1
20000ce8:	1ac0      	subs	r0, r0, r3
20000cea:	4152      	adcs	r2, r2
20000cec:	1a41      	subs	r1, r0, r1
20000cee:	d200      	bcs.n	20000cf2 <__divsi3+0x1a6>
20000cf0:	4601      	mov	r1, r0
20000cf2:	4663      	mov	r3, ip
20000cf4:	4152      	adcs	r2, r2
20000cf6:	105b      	asrs	r3, r3, #1
20000cf8:	4610      	mov	r0, r2
20000cfa:	d301      	bcc.n	20000d00 <__divsi3+0x1b4>
20000cfc:	4240      	negs	r0, r0
20000cfe:	2b00      	cmp	r3, #0
20000d00:	d500      	bpl.n	20000d04 <__divsi3+0x1b8>
20000d02:	4249      	negs	r1, r1
20000d04:	4770      	bx	lr
20000d06:	4663      	mov	r3, ip
20000d08:	105b      	asrs	r3, r3, #1
20000d0a:	d300      	bcc.n	20000d0e <__divsi3+0x1c2>
20000d0c:	4240      	negs	r0, r0
20000d0e:	b501      	push	{r0, lr}
20000d10:	2000      	movs	r0, #0
20000d12:	f000 f805 	bl	20000d20 <__aeabi_idiv0>
20000d16:	bd02      	pop	{r1, pc}

20000d18 <__aeabi_idivmod>:
20000d18:	2900      	cmp	r1, #0
20000d1a:	d0f8      	beq.n	20000d0e <__divsi3+0x1c2>
20000d1c:	e716      	b.n	20000b4c <__divsi3>
20000d1e:	4770      	bx	lr

20000d20 <__aeabi_idiv0>:
20000d20:	4770      	bx	lr
20000d22:	46c0      	nop			; (mov r8, r8)

20000d24 <snake_geometry>:
20000d24:	0000000c 	andeq	r0, r0, ip
20000d28:	00000001 	andeq	r0, r0, r1
20000d2c:	00000001 	andeq	r0, r0, r1
20000d30:	00010000 	andeq	r0, r1, r0
20000d34:	00030002 	andeq	r0, r3, r2
20000d38:	01010100 	mrseq	r0, (UNDEF: 17)
20000d3c:	01030102 	tsteq	r3, r2, lsl #2
20000d40:	02010200 	andeq	r0, r1, #0, 4
20000d44:	02030202 	andeq	r0, r3, #536870912	; 0x20000000
20000d48:	03010300 	movweq	r0, #4864	; 0x1300
20000d4c:	03030302 	movweq	r0, #13058	; 0x3302
	...

20003d30 <snake>:
20003d30:	20000d24 	andcs	r0, r0, r4, lsr #26
20003d34:	ffffffff 			; <UNDEFINED> instruction: 0xffffffff
20003d38:	00000000 	andeq	r0, r0, r0
20003d3c:	00000018 	andeq	r0, r0, r8, lsl r0
20003d40:	00000008 	andeq	r0, r0, r8
20003d44:	2000043d 	andcs	r0, r0, sp, lsr r4
20003d48:	200004bf 			; <UNDEFINED> instruction: 0x200004bf
20003d4c:	20000561 	andcs	r0, r0, r1, ror #10
20003d50:	20000541 	andcs	r0, r0, r1, asr #10

20003d54 <apple_geometry>:
20003d54:	0000000c 	andeq	r0, r0, ip
20003d58:	00000001 	andeq	r0, r0, r1
20003d5c:	00000001 	andeq	r0, r0, r1
20003d60:	02000100 	andeq	r0, r0, #0, 2
20003d64:	01010001 	tsteq	r1, r1
20003d68:	03010201 	movweq	r0, #4609	; 0x1201
20003d6c:	01020002 	tsteq	r2, r2
20003d70:	03020202 	movweq	r0, #8706	; 0x2202
20003d74:	02030103 	andeq	r0, r3, #-1073741824	; 0xc0000000
	...

20006d60 <apple>:
20006d60:	20003d54 	andcs	r3, r0, r4, asr sp
	...
20006d6c:	00000008 	andeq	r0, r0, r8
20006d70:	00000008 	andeq	r0, r0, r8
20006d74:	2000043d 	andcs	r0, r0, sp, lsr r4
20006d78:	200004bf 			; <UNDEFINED> instruction: 0x200004bf
20006d7c:	200005a3 	andcs	r0, r0, r3, lsr #11
20006d80:	20000541 	andcs	r0, r0, r1, asr #10

20006d84 <tail_geometry>:
20006d84:	00000010 	andeq	r0, r0, r0, lsl r0
20006d88:	00000001 	andeq	r0, r0, r1
20006d8c:	00000001 	andeq	r0, r0, r1
20006d90:	00010000 	andeq	r0, r1, r0
20006d94:	00030002 	andeq	r0, r3, r2
20006d98:	01030100 	mrseq	r0, (UNDEF: 19)
20006d9c:	02030200 	andeq	r0, r3, #0, 4
20006da0:	03010300 	movweq	r0, #4864	; 0x1300
20006da4:	03030302 	movweq	r0, #13058	; 0x3302
	...
20009d94:	656d6147 	strbvs	r6, [sp, #-327]!	; 0xfffffeb9
20009d98:	65766f20 	ldrbvs	r6, [r6, #-3872]!	; 0xfffff0e0
20009d9c:	00000072 	andeq	r0, r0, r2, ror r0
20009da0:	0a030201 	beq	200ca5ac <points+0xc07fc>
20009da4:	0b060504 	bleq	2018b1bc <points+0x18140c>
20009da8:	0c090807 	stceq	8, cr0, [r9], {7}
20009dac:	0d0f000e 	stceq	0, cr0, [pc, #-56]	; 20009d7c <tail_geometry+0x2ff8>

20009db0 <points>:
20009db0:	00000000 	andeq	r0, r0, r0

Disassembly of section .debug_info:

00000000 <.debug_info>:
   0:	0000010d 	andeq	r0, r0, sp, lsl #2
   4:	00000004 	andeq	r0, r0, r4
   8:	01040000 	mrseq	r0, (UNDEF: 4)
   c:	00000128 	andeq	r0, r0, r8, lsr #2
  10:	0000000c 	andeq	r0, r0, ip
  14:	0000b300 	andeq	fp, r0, r0, lsl #6
  18:	00001000 	andeq	r1, r0, r0
  1c:	00010420 	andeq	r0, r1, r0, lsr #8
  20:	00000000 	andeq	r0, r0, r0
  24:	07040200 	streq	r0, [r4, -r0, lsl #4]
  28:	00000098 	muleq	r0, r8, r0
  2c:	92070202 	andls	r0, r7, #536870912	; 0x20000000
  30:	02000000 	andeq	r0, r0, #0
  34:	00840801 	addeq	r0, r4, r1, lsl #16
  38:	04030000 	streq	r0, [r3], #-0
  3c:	746e6905 	strbtvc	r6, [lr], #-2309	; 0xfffff6fb
  40:	00a50400 	adceq	r0, r5, r0, lsl #8
  44:	28010000 	stmdacs	r1, {}	; <UNPREDICTABLE>
  48:	00003a06 	andeq	r3, r0, r6, lsl #20
  4c:	0000c600 	andeq	ip, r0, r0, lsl #12
  50:	00004e20 	andeq	r4, r0, r0, lsr #28
  54:	969c0100 	ldrls	r0, [ip], r0, lsl #2
  58:	05000000 	streq	r0, [r0, #-0]
  5c:	006e696d 	rsbeq	r6, lr, sp, ror #18
  60:	3a182801 	bcc	60a06c <startup-0x1f9f5f94>
  64:	02000000 	andeq	r0, r0, #0
  68:	6d056c91 	stcvs	12, cr6, [r5, #-580]	; 0xfffffdbc
  6c:	01007861 	tsteq	r0, r1, ror #16
  70:	003a2128 	eorseq	r2, sl, r8, lsr #2
  74:	91020000 	mrsls	r0, (UNDEF: 2)
  78:	007d0668 	rsbseq	r0, sp, r8, ror #12
  7c:	2a010000 	bcs	40084 <startup-0x1ffbff7c>
  80:	00009608 	andeq	r9, r0, r8, lsl #12
  84:	76910200 	ldrvc	r0, [r1], r0, lsl #4
  88:	01006307 	tsteq	r0, r7, lsl #6
  8c:	0033102b 	eorseq	r1, r3, fp, lsr #32
  90:	91020000 	mrsls	r0, (UNDEF: 2)
  94:	02020075 	andeq	r0, r2, #117	; 0x75
  98:	0001b005 	andeq	fp, r1, r5
  9c:	01a40800 			; <UNDEFINED> instruction: 0x01a40800
  a0:	1d010000 	stcne	0, cr0, [r1, #-0]
  a4:	0000a006 	andeq	sl, r0, r6
  a8:	00002620 	andeq	r2, r0, r0, lsr #12
  ac:	c29c0100 	addsgt	r0, ip, #0, 2
  b0:	05000000 	streq	r0, [r0, #-0]
  b4:	0100736d 	tsteq	r0, sp, ror #6
  b8:	00251f1d 	eoreq	r1, r5, sp, lsl pc
  bc:	91020000 	mrsls	r0, (UNDEF: 2)
  c0:	ba080074 	blt	200298 <startup-0x1fdffd68>
  c4:	01000001 	tsteq	r0, r1
  c8:	00540610 	subseq	r0, r4, r0, lsl r6
  cc:	004c2000 	subeq	r2, ip, r0
  d0:	9c010000 	stcls	0, cr0, [r1], {-0}
  d4:	000000fe 	strdeq	r0, [r0], -lr
  d8:	00737505 	rsbseq	r7, r3, r5, lsl #10
  dc:	251f1001 	ldrcs	r1, [pc, #-1]	; e3 <startup-0x1fffff1d>
  e0:	02000000 	andeq	r0, r0, #0
  e4:	74096c91 	strvc	r6, [r9], #-3217	; 0xfffff36f
  e8:	16200000 	strtne	r0, [r0], -r0
  ec:	07000000 	streq	r0, [r0, -r0]
  f0:	18010069 	stmdane	r1, {r0, r3, r5, r6}
  f4:	00003a0b 	andeq	r3, r0, fp, lsl #20
  f8:	74910200 	ldrvc	r0, [r1], #512	; 0x200
  fc:	1c0a0000 	stcne	0, cr0, [sl], {-0}
 100:	01000001 	tsteq	r0, r1
 104:	00100605 	andseq	r0, r0, r5, lsl #12
 108:	00442000 	subeq	r2, r4, r0
 10c:	9c010000 	stcls	0, cr0, [r1], {-0}
 110:	00036400 	andeq	r6, r3, r0, lsl #8
 114:	ba000400 	blt	111c <startup-0x1fffeee4>
 118:	04000000 	streq	r0, [r0], #-0
 11c:	00012801 	andeq	r2, r1, r1, lsl #16
 120:	02070c00 	andeq	r0, r7, #0, 24
 124:	00b30000 	adcseq	r0, r3, r0
 128:	01140000 	tsteq	r4, r0
 12c:	03102000 	tsteq	r0, #0
 130:	01490000 	mrseq	r0, (UNDEF: 73)
 134:	28020000 	stmdacs	r2, {}	; <UNPREDICTABLE>
 138:	ff122002 			; <UNDEFINED> instruction: 0xff122002
 13c:	03000000 	movweq	r0, #0
 140:	00000379 	andeq	r0, r0, r9, ror r3
 144:	040e2102 	streq	r2, [lr], #-258	; 0xfffffefe
 148:	00000001 	andeq	r0, r0, r1
 14c:	0001ee03 	andeq	lr, r1, r3, lsl #28
 150:	14220200 	strtne	r0, [r2], #-512	; 0xfffffe00
 154:	0000010b 	andeq	r0, r0, fp, lsl #2
 158:	02ed0304 	rsceq	r0, sp, #4, 6	; 0x10000000
 15c:	23020000 	movwcs	r0, #8192	; 0x2000
 160:	00010b14 	andeq	r0, r1, r4, lsl fp
 164:	39030600 	stmdbcc	r3, {r9, sl}
 168:	02000003 	andeq	r0, r0, #3
 16c:	01040e24 	tsteq	r4, r4, lsr #28
 170:	03080000 	movweq	r0, #32768	; 0x8000
 174:	000002e7 	andeq	r0, r0, r7, ror #5
 178:	040e2502 	streq	r2, [lr], #-1282	; 0xfffffafe
 17c:	0c000001 	stceq	0, cr0, [r0], {1}
 180:	00034d03 	andeq	r4, r3, r3, lsl #26
 184:	0f260200 	svceq	0x00260200
 188:	00000112 	andeq	r0, r0, r2, lsl r1
 18c:	03310310 	teqeq	r1, #16, 6	; 0x40000000
 190:	27020000 	strcs	r0, [r2, -r0]
 194:	0001120f 	andeq	r1, r1, pc, lsl #4
 198:	f7031100 			; <UNDEFINED> instruction: 0xf7031100
 19c:	02000002 	andeq	r0, r0, #2
 1a0:	010b1428 	tsteq	fp, r8, lsr #8
 1a4:	03120000 	tsteq	r2, #0
 1a8:	0000030b 	andeq	r0, r0, fp, lsl #6
 1ac:	120f2902 	andne	r2, pc, #32768	; 0x8000
 1b0:	14000001 	strne	r0, [r0], #-1
 1b4:	0001ff03 	andeq	pc, r1, r3, lsl #30
 1b8:	0f2a0200 	svceq	0x002a0200
 1bc:	00000112 	andeq	r0, r0, r2, lsl r1
 1c0:	03010315 	movweq	r0, #4885	; 0x1315
 1c4:	2b020000 	blcs	801cc <startup-0x1ff7fe34>
 1c8:	00010b14 	andeq	r0, r1, r4, lsl fp
 1cc:	de031600 	cfmadd32le	mvax0, mvfx1, mvfx3, mvfx0
 1d0:	02000001 	andeq	r0, r0, #1
 1d4:	01040e2c 	tsteq	r4, ip, lsr #28
 1d8:	03180000 	tsteq	r8, #0
 1dc:	000001c6 	andeq	r0, r0, r6, asr #3
 1e0:	0b142d02 	bleq	50b5f0 <startup-0x1faf4a10>
 1e4:	1c000001 	stcne	0, cr0, [r0], {1}
 1e8:	0001f503 	andeq	pc, r1, r3, lsl #10
 1ec:	142e0200 	strtne	r0, [lr], #-512	; 0xfffffe00
 1f0:	0000010b 	andeq	r0, r0, fp, lsl #2
 1f4:	02a3031e 	adceq	r0, r3, #2013265920	; 0x78000000
 1f8:	2f020000 	svccs	0x00020000
 1fc:	0001040e 	andeq	r0, r1, lr, lsl #8
 200:	9e032000 	cdpls	0, 0, cr2, cr3, cr0, {0}
 204:	02000002 	andeq	r0, r0, #2
 208:	01040e30 	tsteq	r4, r0, lsr lr
 20c:	00240000 	eoreq	r0, r4, r0
 210:	00002504 	andeq	r2, r0, r4, lsl #10
 214:	07040500 	streq	r0, [r4, -r0, lsl #10]
 218:	00000098 	muleq	r0, r8, r0
 21c:	92070205 	andls	r0, r7, #1342177280	; 0x50000000
 220:	05000000 	streq	r0, [r0, #-0]
 224:	00840801 	addeq	r0, r4, r1, lsl #16
 228:	98060000 	stmdals	r6, {}	; <UNPREDICTABLE>
 22c:	02000002 	andeq	r0, r0, #2
 230:	01250a31 			; <UNDEFINED> instruction: 0x01250a31
 234:	04070000 	streq	r0, [r7], #-0
 238:	000000ff 	strdeq	r0, [r0], -pc	; <UNPREDICTABLE>
 23c:	69050408 	stmdbvs	r5, {r3, sl}
 240:	0900746e 	stmdbeq	r0, {r1, r2, r3, r5, r6, sl, ip, sp, lr}
 244:	000001d2 	ldrdeq	r0, [r0], -r2
 248:	2b057801 	blcs	15e254 <startup-0x1fea1dac>
 24c:	c4000001 	strgt	r0, [r0], #-1
 250:	60200003 	eorvs	r0, r0, r3
 254:	01000000 	mrseq	r0, (UNDEF: 0)
 258:	0001789c 	muleq	r1, ip, r8
 25c:	02920a00 	addseq	r0, r2, #0, 20
 260:	78010000 	stmdavc	r1, {}	; <UNPREDICTABLE>
 264:	00017816 	andeq	r7, r1, r6, lsl r8
 268:	6c910200 	lfmvs	f0, 4, [r1], {0}
 26c:	0002a80a 	andeq	sl, r2, sl, lsl #16
 270:	24780100 	ldrbtcs	r0, [r8], #-256	; 0xffffff00
 274:	00000178 	andeq	r0, r0, r8, ror r1
 278:	0b689102 	bleq	1a24688 <startup-0x1e5db978>
 27c:	7a010073 	bvc	40450 <startup-0x1ffbfbb0>
 280:	00017808 	andeq	r7, r1, r8, lsl #16
 284:	74910200 	ldrvc	r0, [r1], #512	; 0x200
 288:	7e040700 	cdpvc	7, 0, cr0, cr4, cr0, {0}
 28c:	05000001 	streq	r0, [r0, #-1]
 290:	008d0801 	addeq	r0, sp, r1, lsl #16
 294:	410c0000 	mrsmi	r0, (UNDEF: 12)
 298:	01000003 	tsteq	r0, r3
 29c:	0378066f 	cmneq	r8, #116391936	; 0x6f00000
 2a0:	004c2000 	subeq	r2, ip, r0
 2a4:	9c010000 	stcls	0, cr0, [r1], {-0}
 2a8:	000001c9 	andeq	r0, r0, r9, asr #3
 2ac:	776f720d 	strbvc	r7, [pc, -sp, lsl #4]!
 2b0:	206f0100 	rsbcs	r0, pc, r0, lsl #2
 2b4:	00000112 	andeq	r0, r0, r2, lsl r1
 2b8:	0a6f9102 	beq	1be46c8 <startup-0x1e41b938>
 2bc:	000001cb 	andeq	r0, r0, fp, asr #3
 2c0:	12336f01 	eorsne	r6, r3, #1, 30
 2c4:	02000001 	andeq	r0, r0, #1
 2c8:	610b6e91 			; <UNDEFINED> instruction: 0x610b6e91
 2cc:	01007264 	tsteq	r0, r4, ror #4
 2d0:	017e0771 	cmneq	lr, r1, ror r7
 2d4:	91020000 	mrsls	r0, (UNDEF: 2)
 2d8:	960c0077 			; <UNDEFINED> instruction: 0x960c0077
 2dc:	01000003 	tsteq	r0, r3
 2e0:	033c0667 	teqeq	ip, #108003328	; 0x6700000
 2e4:	003c2000 	eorseq	r2, ip, r0
 2e8:	9c010000 	stcls	0, cr0, [r1], {-0}
 2ec:	000001ed 	andeq	r0, r0, sp, ror #3
 2f0:	0100630d 	tsteq	r0, sp, lsl #6
 2f4:	017e1c67 	cmneq	lr, r7, ror #24
 2f8:	91020000 	mrsls	r0, (UNDEF: 2)
 2fc:	e30e0077 	movw	r0, #57463	; 0xe077
 300:	01000001 	tsteq	r0, r1
 304:	03020658 	movweq	r0, #9816	; 0x2658
 308:	003a2000 	eorseq	r2, sl, r0
 30c:	9c010000 	stcls	0, cr0, [r1], {-0}
 310:	0003230c 	andeq	r2, r3, ip, lsl #6
 314:	06510100 	ldrbeq	r0, [r1], -r0, lsl #2
 318:	200002cc 	andcs	r0, r0, ip, asr #5
 31c:	00000036 	andeq	r0, r0, r6, lsr r0
 320:	02259c01 	eoreq	r9, r5, #256	; 0x100
 324:	290a0000 	stmdbcs	sl, {}	; <UNPREDICTABLE>
 328:	01000003 	tsteq	r0, r3
 32c:	01122351 	tsteq	r2, r1, asr r3
 330:	91020000 	mrsls	r0, (UNDEF: 2)
 334:	69090077 	stmdbvs	r9, {r0, r1, r2, r4, r5, r6}
 338:	01000003 	tsteq	r0, r3
 33c:	01120f47 	tsteq	r2, r7, asr #30
 340:	02840000 	addeq	r0, r4, #0
 344:	00482000 	subeq	r2, r8, r0
 348:	9c010000 	stcls	0, cr0, [r1], {-0}
 34c:	0000024d 	andeq	r0, r0, sp, asr #4
 350:	0100630b 	tsteq	r0, fp, lsl #6
 354:	017e074c 	cmneq	lr, ip, asr #14
 358:	91020000 	mrsls	r0, (UNDEF: 2)
 35c:	8009006f 	andhi	r0, r9, pc, rrx
 360:	01000002 	tsteq	r0, r2
 364:	01120f3b 	tsteq	r2, fp, lsr pc
 368:	02440000 	subeq	r0, r4, #0
 36c:	00402000 	subeq	r2, r0, r0
 370:	9c010000 	stcls	0, cr0, [r1], {-0}
 374:	00000275 	andeq	r0, r0, r5, ror r2
 378:	0100630b 	tsteq	r0, fp, lsl #6
 37c:	017e073d 	cmneq	lr, sp, lsr r7
 380:	91020000 	mrsls	r0, (UNDEF: 2)
 384:	120c006f 	andne	r0, ip, #111	; 0x6f
 388:	01000003 	tsteq	r0, r3
 38c:	021a0634 	andseq	r0, sl, #52, 12	; 0x3400000
 390:	002a2000 	eoreq	r2, sl, r0
 394:	9c010000 	stcls	0, cr0, [r1], {-0}
 398:	00000299 	muleq	r0, r9, r2
 39c:	0100630d 	tsteq	r0, sp, lsl #6
 3a0:	01122634 	tsteq	r2, r4, lsr r6
 3a4:	91020000 	mrsls	r0, (UNDEF: 2)
 3a8:	d70c0077 	smlsdxle	ip, r7, r0, r0
 3ac:	01000002 	tsteq	r0, r2
 3b0:	01f0062d 	mvnseq	r0, sp, lsr #12
 3b4:	002a2000 	eoreq	r2, sl, r0
 3b8:	9c010000 	stcls	0, cr0, [r1], {-0}
 3bc:	000002bd 			; <UNDEFINED> instruction: 0x000002bd
 3c0:	0100630d 	tsteq	r0, sp, lsl #6
 3c4:	0112252d 	tsteq	r2, sp, lsr #10
 3c8:	91020000 	mrsls	r0, (UNDEF: 2)
 3cc:	ae090077 	mcrge	0, 0, r0, cr9, cr7, {3}
 3d0:	01000002 	tsteq	r0, r2
 3d4:	017e0622 	cmneq	lr, r2, lsr #12
 3d8:	01c40000 	biceq	r0, r4, r0
 3dc:	002c2000 	eoreq	r2, ip, r0
 3e0:	9c010000 	stcls	0, cr0, [r1], {-0}
 3e4:	000002e5 	andeq	r0, r0, r5, ror #5
 3e8:	0100630b 	tsteq	r0, fp, lsl #6
 3ec:	017e0724 	cmneq	lr, r4, lsr #14
 3f0:	91020000 	mrsls	r0, (UNDEF: 2)
 3f4:	7f0c0077 	svcvc	0x000c0077
 3f8:	01000003 	tsteq	r0, r3
 3fc:	01940618 	orrseq	r0, r4, r8, lsl r6
 400:	00302000 	eorseq	r2, r0, r0
 404:	9c010000 	stcls	0, cr0, [r1], {-0}
 408:	00000309 	andeq	r0, r0, r9, lsl #6
 40c:	0100630d 	tsteq	r0, sp, lsl #6
 410:	01122d18 	tsteq	r2, r8, lsl sp
 414:	91020000 	mrsls	r0, (UNDEF: 2)
 418:	540f0077 	strpl	r0, [pc], #-119	; 420 <startup-0x1ffffbe0>
 41c:	01000003 	tsteq	r0, r3
 420:	014c0610 	cmpeq	ip, r0, lsl r6
 424:	00482000 	subeq	r2, r8, r0
 428:	9c010000 	stcls	0, cr0, [r1], {-0}
 42c:	0000033a 	andeq	r0, r0, sl, lsr r3
 430:	0100780d 	tsteq	r0, sp, lsl #16
 434:	017e2210 	cmneq	lr, r0, lsl r2
 438:	91020000 	mrsls	r0, (UNDEF: 2)
 43c:	00630b6f 	rsbeq	r0, r3, pc, ror #22
 440:	7e071201 	cdpvc	2, 0, cr1, cr7, cr1, {0}
 444:	02000001 	andeq	r0, r0, #1
 448:	10007791 	mulne	r0, r1, r7
 44c:	000002c4 	andeq	r0, r0, r4, asr #5
 450:	14060901 	strne	r0, [r6], #-2305	; 0xfffff6ff
 454:	38200001 	stmdacc	r0!, {r0}
 458:	01000000 	mrseq	r0, (UNDEF: 0)
 45c:	00780d9c 			; <UNDEFINED> instruction: 0x00780d9c
 460:	7e200901 	vmulvc.f16	s0, s0, s2	; <UNPREDICTABLE>
 464:	02000001 	andeq	r0, r0, #1
 468:	630b6f91 	movwvs	r6, #49041	; 0xbf91
 46c:	070b0100 	streq	r0, [fp, -r0, lsl #2]
 470:	0000017e 	andeq	r0, r0, lr, ror r1
 474:	00779102 	rsbseq	r9, r7, r2, lsl #2
 478:	0005cc00 	andeq	ip, r5, r0, lsl #24
 47c:	e0000400 	and	r0, r0, r0, lsl #8
 480:	04000001 	streq	r0, [r0], #-1
 484:	00012801 	andeq	r2, r1, r1, lsl #16
 488:	04c20c00 	strbeq	r0, [r2], #3072	; 0xc00
 48c:	03bc0000 			; <UNDEFINED> instruction: 0x03bc0000
	...
 498:	03260000 			; <UNDEFINED> instruction: 0x03260000
 49c:	04020000 	streq	r0, [r2], #-0
 4a0:	00009807 	andeq	r9, r0, r7, lsl #16
 4a4:	07020200 	streq	r0, [r2, -r0, lsl #4]
 4a8:	00000092 	muleq	r0, r2, r0
 4ac:	84080102 	strhi	r0, [r8], #-258	; 0xfffffefe
 4b0:	03000000 	movweq	r0, #0
 4b4:	09340202 	ldmdbeq	r4!, {r1, r9}
 4b8:	0000005a 	andeq	r0, r0, sl, asr r0
 4bc:	02007804 	andeq	r7, r0, #4, 16	; 0x40000
 4c0:	00331036 	eorseq	r1, r3, r6, lsr r0
 4c4:	04000000 	streq	r0, [r0], #-0
 4c8:	36020079 			; <UNDEFINED> instruction: 0x36020079
 4cc:	00003313 	andeq	r3, r0, r3, lsl r3
 4d0:	05000100 	streq	r0, [r0, #-256]	; 0xffffff00
 4d4:	0000041b 	andeq	r0, r0, fp, lsl r4
 4d8:	3a033702 	bcc	ce0e8 <startup-0x1ff31f18>
 4dc:	06000000 	streq	r0, [r0], -r0
 4e0:	3b02300c 	blcc	8c518 <startup-0x1ff73ae8>
 4e4:	0000a409 	andeq	sl, r0, r9, lsl #8
 4e8:	057f0700 	ldrbeq	r0, [pc, #-1792]!	; fffffdf0 <points+0xdfff6040>
 4ec:	3d020000 	stccc	0, cr0, [r2, #-0]
 4f0:	0000a406 	andeq	sl, r0, r6, lsl #8
 4f4:	a9070000 	stmdbge	r7, {}	; <UNPREDICTABLE>
 4f8:	02000004 	andeq	r0, r0, #4
 4fc:	00a4063e 	adceq	r0, r4, lr, lsr r6
 500:	07040000 	streq	r0, [r4, -r0]
 504:	000004af 	andeq	r0, r0, pc, lsr #9
 508:	a4063f02 	strge	r3, [r6], #-3842	; 0xfffff0fe
 50c:	08000000 	stmdaeq	r0, {}	; <UNPREDICTABLE>
 510:	00787004 	rsbseq	r7, r8, r4
 514:	ab084002 	blge	210524 <startup-0x1fdefadc>
 518:	0c000000 	stceq	0, cr0, [r0], {-0}
 51c:	05040800 	streq	r0, [r4, #-2048]	; 0xfffff800
 520:	00746e69 	rsbseq	r6, r4, r9, ror #28
 524:	00005a09 	andeq	r5, r0, r9, lsl #20
 528:	0000bc00 	andeq	fp, r0, r0, lsl #24
 52c:	00250a00 	eoreq	r0, r5, r0, lsl #20
 530:	17ff0000 	ldrbne	r0, [pc, r0]!
 534:	03a80500 			; <UNDEFINED> instruction: 0x03a80500
 538:	41020000 	mrsmi	r0, (UNDEF: 2)
 53c:	00006603 	andeq	r6, r0, r3, lsl #12
 540:	03a70500 			; <UNDEFINED> instruction: 0x03a70500
 544:	41020000 	mrsmi	r0, (UNDEF: 2)
 548:	0000d40e 	andeq	sp, r0, lr, lsl #8
 54c:	66040b00 	strvs	r0, [r4], -r0, lsl #22
 550:	0c000000 	stceq	0, cr0, [r0], {-0}
 554:	00000573 	andeq	r0, r0, r3, ror r5
 558:	10430224 	subne	r0, r3, r4, lsr #4
 55c:	0000015d 	andeq	r0, r0, sp, asr r1
 560:	6f656704 	svcvs	0x00656704
 564:	0c450200 	sfmeq	f0, 2, [r5], {-0}
 568:	000000c8 	andeq	r0, r0, r8, asr #1
 56c:	04060700 	streq	r0, [r6], #-1792	; 0xfffff900
 570:	46020000 	strmi	r0, [r2], -r0
 574:	0000a406 	andeq	sl, r0, r6, lsl #8
 578:	0b070400 	bleq	1c1580 <startup-0x1fe3ea80>
 57c:	02000004 	andeq	r0, r0, #4
 580:	00a40c46 	adceq	r0, r4, r6, asr #24
 584:	07080000 	streq	r0, [r8, -r0]
 588:	00000432 	andeq	r0, r0, r2, lsr r4
 58c:	a4064702 	strge	r4, [r6], #-1794	; 0xfffff8fe
 590:	0c000000 	stceq	0, cr0, [r0], {-0}
 594:	00043707 	andeq	r3, r4, r7, lsl #14
 598:	0c470200 	sfmeq	f0, 2, [r7], {-0}
 59c:	000000a4 	andeq	r0, r0, r4, lsr #1
 5a0:	04bd0710 	ldrteq	r0, [sp], #1808	; 0x710
 5a4:	48020000 	stmdami	r2, {}	; <UNPREDICTABLE>
 5a8:	00016e0a 	andeq	r6, r1, sl, lsl #28
 5ac:	97071400 	strls	r1, [r7, -r0, lsl #8]
 5b0:	02000005 	andeq	r0, r0, #5
 5b4:	016e0a49 	cmneq	lr, r9, asr #20
 5b8:	07180000 	ldreq	r0, [r8, -r0]
 5bc:	00000401 	andeq	r0, r0, r1, lsl #8
 5c0:	6e0a4a02 	vmlavs.f32	s8, s20, s4
 5c4:	1c000001 	stcne	0, cr0, [r0], {1}
 5c8:	00042807 	andeq	r2, r4, r7, lsl #16
 5cc:	0a4b0200 	beq	12c0dd4 <startup-0x1ed3f22c>
 5d0:	00000189 	andeq	r0, r0, r9, lsl #3
 5d4:	680d0020 	stmdavs	sp, {r5}
 5d8:	0e000001 	cdpeq	0, 0, cr0, cr0, cr1, {0}
 5dc:	00000168 	andeq	r0, r0, r8, ror #2
 5e0:	da040b00 	ble	1031e8 <startup-0x1fefce18>
 5e4:	0b000000 	bleq	5ec <startup-0x1ffffa14>
 5e8:	00015d04 	andeq	r5, r1, r4, lsl #26
 5ec:	01890d00 	orreq	r0, r9, r0, lsl #26
 5f0:	680e0000 	stmdavs	lr, {}	; <UNPREDICTABLE>
 5f4:	0e000001 	cdpeq	0, 0, cr0, cr0, cr1, {0}
 5f8:	000000a4 	andeq	r0, r0, r4, lsr #1
 5fc:	0000a40e 	andeq	sl, r0, lr, lsl #8
 600:	040b0000 	streq	r0, [fp], #-0
 604:	00000174 	andeq	r0, r0, r4, ror r1
 608:	00059e05 	andeq	r9, r5, r5, lsl #28
 60c:	034c0200 	movteq	r0, #49664	; 0xc200
 610:	000000da 	ldrdeq	r0, [r0], -sl
 614:	00059d05 	andeq	r9, r5, r5, lsl #26
 618:	0c4c0200 	sfmeq	f0, 2, [ip], {-0}
 61c:	00000168 	andeq	r0, r0, r8, ror #2
 620:	0005820f 	andeq	r8, r5, pc, lsl #4
 624:	0e2d0100 	sufeqe	f0, f5, f0
 628:	00000025 	andeq	r0, r0, r5, lsr #32
 62c:	9db00305 	ldcls	3, cr0, [r0, #20]!
 630:	640f2000 	strvs	r2, [pc], #-0	; 638 <startup-0x1ffff9c8>
 634:	01000005 	tsteq	r0, r5
 638:	00bc0a68 	adcseq	r0, ip, r8, ror #20
 63c:	03050000 	movweq	r0, #20480	; 0x5000
 640:	20000d24 	andcs	r0, r0, r4, lsr #26
 644:	0003ef10 	andeq	lr, r3, r0, lsl pc
 648:	0f760100 	svceq	0x00760100
 64c:	0000018f 	andeq	r0, r0, pc, lsl #3
 650:	3d300305 	ldccc	3, cr0, [r0, #-20]!	; 0xffffffec
 654:	480f2000 	stmdami	pc, {sp}	; <UNPREDICTABLE>
 658:	01000005 	tsteq	r0, r5
 65c:	00bc0a82 	adcseq	r0, ip, r2, lsl #21
 660:	03050000 	movweq	r0, #20480	; 0x5000
 664:	20003d54 	andcs	r3, r0, r4, asr sp
 668:	0003b610 	andeq	fp, r3, r0, lsl r6
 66c:	0f8c0100 	svceq	0x008c0100
 670:	0000018f 	andeq	r0, r0, pc, lsl #3
 674:	6d600305 	stclvs	3, cr0, [r0, #-20]!	; 0xffffffec
 678:	920f2000 	andls	r2, pc, #0
 67c:	01000004 	tsteq	r0, r4
 680:	00bc0a98 	umlalseq	r0, ip, r8, sl
 684:	03050000 	movweq	r0, #20480	; 0x5000
 688:	20006d84 	andcs	r6, r0, r4, lsl #27
 68c:	00047b11 	andeq	r7, r4, r1, lsl fp
 690:	06d70100 	ldrbeq	r0, [r7], r0, lsl #2
 694:	20000758 	andcs	r0, r0, r8, asr r7
 698:	00000118 	andeq	r0, r0, r8, lsl r1
 69c:	02729c01 	rsbseq	r9, r2, #256	; 0x100
 6a0:	63120000 	tstvs	r2, #0
 6a4:	07d90100 	ldrbeq	r0, [r9, r0, lsl #2]
 6a8:	00000272 	andeq	r0, r0, r2, ror r2
 6ac:	10679102 	rsbne	r9, r7, r2, lsl #2
 6b0:	00000421 	andeq	r0, r0, r1, lsr #8
 6b4:	9b0ada01 	blls	2b6ec0 <startup-0x1fd49140>
 6b8:	02000001 	andeq	r0, r0, #1
 6bc:	a5106c91 	ldrge	r6, [r0, #-3217]	; 0xfffff36f
 6c0:	01000005 	tsteq	r0, r5
 6c4:	019b0adb 			; <UNDEFINED> instruction: 0x019b0adb
 6c8:	91020000 	mrsls	r0, (UNDEF: 2)
 6cc:	04761068 	ldrbteq	r1, [r6], #-104	; 0xffffff98
 6d0:	dd010000 	stcle	0, cr0, [r1, #-0]
 6d4:	0002790a 	andeq	r7, r2, sl, lsl #18
 6d8:	58910200 	ldmpl	r1, {r9}
 6dc:	0004a013 	andeq	sl, r4, r3, lsl r0
 6e0:	02e30100 	rsceq	r0, r3, #0, 2
 6e4:	000000a4 	andeq	r0, r0, r4, lsr #1
 6e8:	02000014 	andeq	r0, r0, #20
 6ec:	008d0801 	addeq	r0, sp, r1, lsl #16
 6f0:	9b090000 	blls	2406f8 <startup-0x1fdbf908>
 6f4:	89000001 	stmdbhi	r0, {r0}
 6f8:	15000002 	strne	r0, [r0, #-2]
 6fc:	00000025 	andeq	r0, r0, r5, lsr #32
 700:	12160002 	andsne	r0, r6, #2
 704:	01000005 	tsteq	r0, r5
 708:	027206ca 	rsbseq	r0, r2, #211812352	; 0xca00000
 70c:	07220000 	streq	r0, [r2, -r0]!
 710:	00362000 	eorseq	r2, r6, r0
 714:	9c010000 	stcls	0, cr0, [r1], {-0}
 718:	000002b3 			; <UNDEFINED> instruction: 0x000002b3
 71c:	0003ef17 	andeq	lr, r3, r7, lsl pc
 720:	18ca0100 	stmiane	sl, {r8}^
 724:	0000019b 	muleq	r0, fp, r1
 728:	00749102 	rsbseq	r9, r4, r2, lsl #2
 72c:	00050216 	andeq	r0, r5, r6, lsl r2
 730:	06c20100 	strbeq	r0, [r2], r0, lsl #2
 734:	00000272 	andeq	r0, r0, r2, ror r2
 738:	200006f4 	strdcs	r0, [r0], -r4
 73c:	0000002e 	andeq	r0, r0, lr, lsr #32
 740:	02ea9c01 	rsceq	r9, sl, #256	; 0x100
 744:	6f180000 	svcvs	0x00180000
 748:	c2010031 	andgt	r0, r1, #49	; 0x31
 74c:	00019b1e 	andeq	r9, r1, lr, lsl fp
 750:	74910200 	ldrvc	r0, [r1], #512	; 0x200
 754:	00326f18 	eorseq	r6, r2, r8, lsl pc
 758:	9b2ac201 	blls	ab0f64 <startup-0x1f54f09c>
 75c:	02000001 	andeq	r0, r0, #1
 760:	16007091 			; <UNDEFINED> instruction: 0x16007091
 764:	0000043c 	andeq	r0, r0, ip, lsr r4
 768:	a405b501 	strge	fp, [r5], #-1281	; 0xfffffaff
 76c:	34000000 	strcc	r0, [r0], #-0
 770:	c0200006 	eorgt	r0, r0, r6
 774:	01000000 	mrseq	r0, (UNDEF: 0)
 778:	00038b9c 	muleq	r3, ip, fp
 77c:	316f1800 	cmncc	pc, r0, lsl #16
 780:	1bb50100 	blne	fed40b88 <points+0xded36dd8>
 784:	0000019b 	muleq	r0, fp, r1
 788:	185c9102 	ldmdane	ip, {r1, r8, ip, pc}^
 78c:	0100326f 	tsteq	r0, pc, ror #4
 790:	019b27b5 			; <UNDEFINED> instruction: 0x019b27b5
 794:	91020000 	mrsls	r0, (UNDEF: 2)
 798:	044a1058 	strbeq	r1, [sl], #-88	; 0xffffffa8
 79c:	b6010000 	strlt	r0, [r1], -r0
 7a0:	0000a407 	andeq	sl, r0, r7, lsl #8
 7a4:	6c910200 	lfmvs	f0, 4, [r1], {0}
 7a8:	00045310 	andeq	r5, r4, r0, lsl r3
 7ac:	07b70100 	ldreq	r0, [r7, r0, lsl #2]!
 7b0:	000000a4 	andeq	r0, r0, r4, lsr #1
 7b4:	10689102 	rsbne	r9, r8, r2, lsl #2
 7b8:	00000466 	andeq	r0, r0, r6, ror #8
 7bc:	a407b801 	strge	fp, [r7], #-2049	; 0xfffff7ff
 7c0:	02000000 	andeq	r0, r0, #0
 7c4:	3f106491 	svccc	0x00106491
 7c8:	01000005 	tsteq	r0, r5
 7cc:	00a407b9 	strhteq	r0, [r4], r9
 7d0:	91020000 	mrsls	r0, (UNDEF: 2)
 7d4:	06561960 	ldrbeq	r1, [r6], -r0, ror #18
 7d8:	00942000 	addseq	r2, r4, r0
 7dc:	69120000 	ldmdbvs	r2, {}	; <UNPREDICTABLE>
 7e0:	0cba0100 	ldfeqs	f0, [sl]
 7e4:	000000a4 	andeq	r0, r0, r4, lsr #1
 7e8:	19749102 	ldmdbne	r4!, {r1, r8, ip, pc}^
 7ec:	2000065c 	andcs	r0, r0, ip, asr r6
 7f0:	0000007c 	andeq	r0, r0, ip, ror r0
 7f4:	01006a12 	tsteq	r0, r2, lsl sl
 7f8:	00a40ebb 	strhteq	r0, [r4], fp
 7fc:	91020000 	mrsls	r0, (UNDEF: 2)
 800:	00000070 	andeq	r0, r0, r0, ror r0
 804:	00046f1a 	andeq	r6, r4, sl, lsl pc
 808:	10a50100 	adcne	r0, r5, r0, lsl #2
 80c:	0000019b 	muleq	r0, fp, r1
 810:	200005de 	ldrdcs	r0, [r0], -lr
 814:	00000056 	andeq	r0, r0, r6, asr r0
 818:	03cf9c01 	biceq	r9, pc, #256	; 0x100
 81c:	6f180000 	svcvs	0x00180000
 820:	01006a62 	tsteq	r0, r2, ror #20
 824:	019b24a5 	orrseq	r2, fp, r5, lsr #9
 828:	91020000 	mrsls	r0, (UNDEF: 2)
 82c:	00781874 	rsbseq	r1, r8, r4, ror r8
 830:	a42da501 	strtge	sl, [sp], #-1281	; 0xfffffaff
 834:	02000000 	andeq	r0, r0, #0
 838:	79187091 	ldmdbvc	r8, {r0, r4, r7, ip, sp, lr}
 83c:	34a50100 	strtcc	r0, [r5], #256	; 0x100
 840:	000000a4 	andeq	r0, r0, r4, lsr #1
 844:	006c9102 	rsbeq	r9, ip, r2, lsl #2
 848:	0003b111 	andeq	fp, r3, r1, lsl r1
 84c:	065d0100 	ldrbeq	r0, [sp], -r0, lsl #2
 850:	200005a2 	andcs	r0, r0, r2, lsr #11
 854:	0000003c 	andeq	r0, r0, ip, lsr r0
 858:	03f59c01 	mvnseq	r9, #256	; 0x100
 85c:	21170000 	tstcs	r7, r0
 860:	01000004 	tsteq	r0, r4
 864:	019b195d 	orrseq	r1, fp, sp, asr r9
 868:	91020000 	mrsls	r0, (UNDEF: 2)
 86c:	10110074 	andsne	r0, r1, r4, ror r0
 870:	01000004 	tsteq	r0, r4
 874:	05600652 	strbeq	r0, [r0, #-1618]!	; 0xfffff9ae
 878:	00422000 	subeq	r2, r2, r0
 87c:	9c010000 	stcls	0, cr0, [r1], {-0}
 880:	0000041b 	andeq	r0, r0, fp, lsl r4
 884:	00057817 	andeq	r7, r5, r7, lsl r8
 888:	19520100 	ldmdbne	r2, {r8}^
 88c:	0000019b 	muleq	r0, fp, r1
 890:	00749102 	rsbseq	r9, r4, r2, lsl #2
 894:	00051c1b 	andeq	r1, r5, fp, lsl ip
 898:	064b0100 	strbeq	r0, [fp], -r0, lsl #2
 89c:	20000540 	andcs	r0, r0, r0, asr #10
 8a0:	00000020 	andeq	r0, r0, r0, lsr #32
 8a4:	045b9c01 	ldrbeq	r9, [fp], #-3073	; 0xfffff3ff
 8a8:	6f180000 	svcvs	0x00180000
 8ac:	01006a62 	tsteq	r0, r2, ror #20
 8b0:	019b1f4b 	orrseq	r1, fp, fp, asr #30
 8b4:	91020000 	mrsls	r0, (UNDEF: 2)
 8b8:	00781874 	rsbseq	r1, r8, r4, ror r8
 8bc:	a4284b01 	strtge	r4, [r8], #-2817	; 0xfffff4ff
 8c0:	02000000 	andeq	r0, r0, #0
 8c4:	79187091 	ldmdbvc	r8, {r0, r4, r7, ip, sp, lr}
 8c8:	2f4b0100 	svccs	0x004b0100
 8cc:	000000a4 	andeq	r0, r0, r4, lsr #1
 8d0:	006c9102 	rsbeq	r9, ip, r2, lsl #2
 8d4:	00055711 	andeq	r5, r5, r1, lsl r7
 8d8:	06400100 	strbeq	r0, [r0], -r0, lsl #2
 8dc:	200004be 			; <UNDEFINED> instruction: 0x200004be
 8e0:	00000082 	andeq	r0, r0, r2, lsl #1
 8e4:	04cb9c01 	strbeq	r9, [fp], #3073	; 0xc01
 8e8:	6f180000 	svcvs	0x00180000
 8ec:	01006a62 	tsteq	r0, r2, ror #20
 8f0:	019b1b40 	orrseq	r1, fp, r0, asr #22
 8f4:	91020000 	mrsls	r0, (UNDEF: 2)
 8f8:	045c105c 	ldrbeq	r1, [ip], #-92	; 0xffffffa4
 8fc:	42010000 	andmi	r0, r1, #0
 900:	0000a406 	andeq	sl, r0, r6, lsl #8
 904:	68910200 	ldmvs	r1, {r9}
 908:	0004ce19 	andeq	ip, r4, r9, lsl lr
 90c:	00006820 	andeq	r6, r0, r0, lsr #16
 910:	00691200 	rsbeq	r1, r9, r0, lsl #4
 914:	a40a4301 	strge	r4, [sl], #-769	; 0xfffffcff
 918:	02000000 	andeq	r0, r0, #0
 91c:	d4196c91 	ldrle	r6, [r9], #-3217	; 0xfffff36f
 920:	54200004 	strtpl	r0, [r0], #-4
 924:	12000000 	andne	r0, r0, #0
 928:	45010078 	strmi	r0, [r1, #-120]	; 0xffffff88
 92c:	00003311 	andeq	r3, r0, r1, lsl r3
 930:	67910200 	ldrvs	r0, [r1, r0, lsl #4]
 934:	01007912 	tsteq	r0, r2, lsl r9
 938:	00331146 	eorseq	r1, r3, r6, asr #2
 93c:	91020000 	mrsls	r0, (UNDEF: 2)
 940:	00000066 	andeq	r0, r0, r6, rrx
 944:	0003f511 	andeq	pc, r3, r1, lsl r5	; <UNPREDICTABLE>
 948:	06350100 	ldrteq	r0, [r5], -r0, lsl #2
 94c:	2000043c 	andcs	r0, r0, ip, lsr r4
 950:	00000082 	andeq	r0, r0, r2, lsl #1
 954:	053b9c01 	ldreq	r9, [fp, #-3073]!	; 0xfffff3ff
 958:	6f180000 	svcvs	0x00180000
 95c:	01006a62 	tsteq	r0, r2, ror #20
 960:	019b1a35 	orrseq	r1, fp, r5, lsr sl
 964:	91020000 	mrsls	r0, (UNDEF: 2)
 968:	045c105c 	ldrbeq	r1, [ip], #-92	; 0xffffffa4
 96c:	37010000 	strcc	r0, [r1, -r0]
 970:	0000a406 	andeq	sl, r0, r6, lsl #8
 974:	68910200 	ldmvs	r1, {r9}
 978:	00044c19 	andeq	r4, r4, r9, lsl ip
 97c:	00006820 	andeq	r6, r0, r0, lsr #16
 980:	00691200 	rsbeq	r1, r9, r0, lsl #4
 984:	a40a3801 	strge	r3, [sl], #-2049	; 0xfffff7ff
 988:	02000000 	andeq	r0, r0, #0
 98c:	52196c91 	andspl	r6, r9, #37120	; 0x9100
 990:	54200004 	strtpl	r0, [r0], #-4
 994:	12000000 	andne	r0, r0, #0
 998:	3a010078 	bcc	40b80 <startup-0x1ffbf480>
 99c:	00003311 	andeq	r3, r0, r1, lsl r3
 9a0:	67910200 	ldrvs	r0, [r1, r0, lsl #4]
 9a4:	01007912 	tsteq	r0, r2, lsl r9
 9a8:	0033113b 	eorseq	r1, r3, fp, lsr r1
 9ac:	91020000 	mrsls	r0, (UNDEF: 2)
 9b0:	00000066 	andeq	r0, r0, r6, rrx
 9b4:	0005891b 	andeq	r8, r5, fp, lsl r9
 9b8:	06270100 	strteq	r0, [r7], -r0, lsl #2
 9bc:	20000436 	andcs	r0, r0, r6, lsr r4
 9c0:	00000006 	andeq	r0, r0, r6
 9c4:	056a9c01 	strbeq	r9, [sl, #-3073]!	; 0xfffff3ff
 9c8:	78180000 	ldmdavc	r8, {}	; <UNPREDICTABLE>
 9cc:	1e270100 	sufnes	f0, f7, f0
 9d0:	000000a4 	andeq	r0, r0, r4, lsr #1
 9d4:	79185001 	ldmdbvc	r8, {r0, ip, lr}
 9d8:	25270100 	strcs	r0, [r7, #-256]!	; 0xffffff00
 9dc:	000000a4 	andeq	r0, r0, r4, lsr #1
 9e0:	1c005101 	stfnes	f5, [r0], {1}
 9e4:	000005b0 			; <UNDEFINED> instruction: 0x000005b0
 9e8:	30062001 	andcc	r2, r6, r1
 9ec:	06200004 	strteq	r0, [r0], -r4
 9f0:	01000000 	mrseq	r0, (UNDEF: 0)
 9f4:	04801b9c 	streq	r1, [r0], #2972	; 0xb9c
 9f8:	19010000 	stmdbne	r1, {}	; <UNPREDICTABLE>
 9fc:	00042a06 	andeq	r2, r4, r6, lsl #20
 a00:	00000620 	andeq	r0, r0, r0, lsr #12
 a04:	ab9c0100 	blge	fe700e0c <points+0xde6f705c>
 a08:	18000005 	stmdane	r0, {r0, r2}
 a0c:	19010078 	stmdbne	r1, {r3, r4, r5, r6}
 a10:	0000a41c 	andeq	sl, r0, ip, lsl r4
 a14:	18500100 	ldmdane	r0, {r8}^
 a18:	19010079 	stmdbne	r1, {r0, r3, r4, r5, r6}
 a1c:	0000a423 	andeq	sl, r0, r3, lsr #8
 a20:	00510100 	subseq	r0, r1, r0, lsl #2
 a24:	00052d1c 	andeq	r2, r5, ip, lsl sp
 a28:	06120100 	ldreq	r0, [r2], -r0, lsl #2
 a2c:	20000424 	andcs	r0, r0, r4, lsr #8
 a30:	00000006 	andeq	r0, r0, r6
 a34:	b51c9c01 	ldrlt	r9, [ip, #-3073]	; 0xfffff3ff
 a38:	01000004 	tsteq	r0, r4
 a3c:	00000607 	andeq	r0, r0, r7, lsl #12
 a40:	000c2000 	andeq	r2, ip, r0
 a44:	9c010000 	stcls	0, cr0, [r1], {-0}
 a48:	0001d100 	andeq	sp, r1, r0, lsl #2
 a4c:	a2000400 	andge	r0, r0, #0, 8
 a50:	04000003 	streq	r0, [r0], #-3
 a54:	00012801 	andeq	r2, r1, r1, lsl #16
 a58:	05de0c00 	ldrbeq	r0, [lr, #3072]	; 0xc00
 a5c:	00b30000 	adcseq	r0, r3, r0
 a60:	08700000 	ldmdaeq	r0!, {}^	; <UNPREDICTABLE>
 a64:	01202000 			; <UNDEFINED> instruction: 0x01202000
 a68:	065d0000 	ldrbeq	r0, [sp], -r0
 a6c:	28020000 	stmdacs	r2, {}	; <UNPREDICTABLE>
 a70:	ff122002 			; <UNDEFINED> instruction: 0xff122002
 a74:	03000000 	movweq	r0, #0
 a78:	00000379 	andeq	r0, r0, r9, ror r3
 a7c:	040e2102 	streq	r2, [lr], #-258	; 0xfffffefe
 a80:	00000001 	andeq	r0, r0, r1
 a84:	0001ee03 	andeq	lr, r1, r3, lsl #28
 a88:	14220200 	strtne	r0, [r2], #-512	; 0xfffffe00
 a8c:	0000010b 	andeq	r0, r0, fp, lsl #2
 a90:	02ed0304 	rsceq	r0, sp, #4, 6	; 0x10000000
 a94:	23020000 	movwcs	r0, #8192	; 0x2000
 a98:	00010b14 	andeq	r0, r1, r4, lsl fp
 a9c:	39030600 	stmdbcc	r3, {r9, sl}
 aa0:	02000003 	andeq	r0, r0, #3
 aa4:	01040e24 	tsteq	r4, r4, lsr #28
 aa8:	03080000 	movweq	r0, #32768	; 0x8000
 aac:	000002e7 	andeq	r0, r0, r7, ror #5
 ab0:	040e2502 	streq	r2, [lr], #-1282	; 0xfffffafe
 ab4:	0c000001 	stceq	0, cr0, [r0], {1}
 ab8:	00034d03 	andeq	r4, r3, r3, lsl #26
 abc:	0f260200 	svceq	0x00260200
 ac0:	00000112 	andeq	r0, r0, r2, lsl r1
 ac4:	03310310 	teqeq	r1, #16, 6	; 0x40000000
 ac8:	27020000 	strcs	r0, [r2, -r0]
 acc:	0001120f 	andeq	r1, r1, pc, lsl #4
 ad0:	f7031100 			; <UNDEFINED> instruction: 0xf7031100
 ad4:	02000002 	andeq	r0, r0, #2
 ad8:	010b1428 	tsteq	fp, r8, lsr #8
 adc:	03120000 	tsteq	r2, #0
 ae0:	0000030b 	andeq	r0, r0, fp, lsl #6
 ae4:	120f2902 	andne	r2, pc, #32768	; 0x8000
 ae8:	14000001 	strne	r0, [r0], #-1
 aec:	0001ff03 	andeq	pc, r1, r3, lsl #30
 af0:	0f2a0200 	svceq	0x002a0200
 af4:	00000112 	andeq	r0, r0, r2, lsl r1
 af8:	03010315 	movweq	r0, #4885	; 0x1315
 afc:	2b020000 	blcs	80b04 <startup-0x1ff7f4fc>
 b00:	00010b14 	andeq	r0, r1, r4, lsl fp
 b04:	de031600 	cfmadd32le	mvax0, mvfx1, mvfx3, mvfx0
 b08:	02000001 	andeq	r0, r0, #1
 b0c:	01040e2c 	tsteq	r4, ip, lsr #28
 b10:	03180000 	tsteq	r8, #0
 b14:	000001c6 	andeq	r0, r0, r6, asr #3
 b18:	0b142d02 	bleq	50bf28 <startup-0x1faf40d8>
 b1c:	1c000001 	stcne	0, cr0, [r0], {1}
 b20:	0001f503 	andeq	pc, r1, r3, lsl #10
 b24:	142e0200 	strtne	r0, [lr], #-512	; 0xfffffe00
 b28:	0000010b 	andeq	r0, r0, fp, lsl #2
 b2c:	02a3031e 	adceq	r0, r3, #2013265920	; 0x78000000
 b30:	2f020000 	svccs	0x00020000
 b34:	0001040e 	andeq	r0, r1, lr, lsl #8
 b38:	9e032000 	cdpls	0, 0, cr2, cr3, cr0, {0}
 b3c:	02000002 	andeq	r0, r0, #2
 b40:	01040e30 	tsteq	r4, r0, lsr lr
 b44:	00240000 	eoreq	r0, r4, r0
 b48:	00002504 	andeq	r2, r0, r4, lsl #10
 b4c:	07040500 	streq	r0, [r4, -r0, lsl #10]
 b50:	00000098 	muleq	r0, r8, r0
 b54:	92070205 	andls	r0, r7, #1342177280	; 0x50000000
 b58:	05000000 	streq	r0, [r0, #-0]
 b5c:	00840801 	addeq	r0, r4, r1, lsl #16
 b60:	98060000 	stmdals	r6, {}	; <UNPREDICTABLE>
 b64:	02000002 	andeq	r0, r0, #2
 b68:	01250a31 			; <UNDEFINED> instruction: 0x01250a31
 b6c:	04070000 	streq	r0, [r7], #-0
 b70:	000000ff 	strdeq	r0, [r0], -pc	; <UNPREDICTABLE>
 b74:	69050408 	stmdbvs	r5, {r3, sl}
 b78:	0900746e 	stmdbeq	r0, {r1, r2, r3, r5, r6, sl, ip, sp, lr}
 b7c:	000005d1 	ldrdeq	r0, [r0], -r1
 b80:	120f2001 	andne	r2, pc, #1
 b84:	28000001 	stmdacs	r0, {r0}
 b88:	68200009 	stmdavs	r0!, {r0, r3}
 b8c:	01000000 	mrseq	r0, (UNDEF: 0)
 b90:	00017a9c 	muleq	r1, ip, sl
 b94:	656b0a00 	strbvs	r0, [fp, #-2560]!	; 0xfffff600
 b98:	22010079 	andcs	r0, r1, #121	; 0x79
 b9c:	00017a10 	andeq	r7, r1, r0, lsl sl
 ba0:	58910200 	ldmpl	r1, {r9}
 ba4:	776f720a 	strbvc	r7, [pc, -sl, lsl #4]!
 ba8:	06240100 	strteq	r0, [r4], -r0, lsl #2
 bac:	0000012b 	andeq	r0, r0, fp, lsr #2
 bb0:	0a6c9102 	beq	1b24fc0 <startup-0x1e4db040>
 bb4:	006c6f63 	rsbeq	r6, ip, r3, ror #30
 bb8:	2b0b2401 	blcs	2c9bc4 <startup-0x1fd3643c>
 bbc:	02000001 	andeq	r0, r0, #1
 bc0:	0b006891 	bleq	1ae0c <startup-0x1ffe51f4>
 bc4:	00000112 	andeq	r0, r0, r2, lsl r1
 bc8:	0000018a 	andeq	r0, r0, sl, lsl #3
 bcc:	0001040c 	andeq	r0, r1, ip, lsl #8
 bd0:	0d000f00 	stceq	15, cr0, [r0, #-0]
 bd4:	000005d6 	ldrdeq	r0, [r0], -r6
 bd8:	2b051201 	blcs	1453e4 <startup-0x1febac1c>
 bdc:	d4000001 	strle	r0, [r0], #-1
 be0:	54200008 	strtpl	r0, [r0], #-8
 be4:	01000000 	mrseq	r0, (UNDEF: 0)
 be8:	0001b29c 	muleq	r1, ip, r2
 bec:	00630a00 	rsbeq	r0, r3, r0, lsl #20
 bf0:	12101401 	andsne	r1, r0, #16777216	; 0x1000000
 bf4:	02000001 	andeq	r0, r0, #1
 bf8:	0e007791 	mcreq	7, 0, r7, cr0, cr1, {4}
 bfc:	000005c5 	andeq	r0, r0, r5, asr #11
 c00:	70060601 	andvc	r0, r6, r1, lsl #12
 c04:	64200008 	strtvs	r0, [r0], #-8
 c08:	01000000 	mrseq	r0, (UNDEF: 0)
 c0c:	6f720f9c 	svcvs	0x00720f9c
 c10:	06010077 			; <UNDEFINED> instruction: 0x06010077
 c14:	0001041f 	andeq	r0, r1, pc, lsl r4
 c18:	74910200 	ldrvc	r0, [r1], #512	; 0x200
 c1c:	01770000 	cmneq	r7, r0
 c20:	00040000 	andeq	r0, r4, r0
 c24:	00000495 	muleq	r0, r5, r4
 c28:	01280104 			; <UNDEFINED> instruction: 0x01280104
 c2c:	670c0000 	strvs	r0, [ip, -r0]
 c30:	b3000006 	movwlt	r0, #6
 c34:	90000000 	andls	r0, r0, r0
 c38:	a6200009 	strtge	r0, [r0], -r9
 c3c:	c0000000 	andgt	r0, r0, r0
 c40:	02000007 	andeq	r0, r0, #7
 c44:	12200228 	eorne	r0, r0, #40, 4	; 0x80000002
 c48:	000000ff 	strdeq	r0, [r0], -pc	; <UNPREDICTABLE>
 c4c:	00037903 	andeq	r7, r3, r3, lsl #18
 c50:	0e210200 	cdpeq	2, 2, cr0, cr1, cr0, {0}
 c54:	00000104 	andeq	r0, r0, r4, lsl #2
 c58:	01ee0300 	mvneq	r0, r0, lsl #6
 c5c:	22020000 	andcs	r0, r2, #0
 c60:	00010b14 	andeq	r0, r1, r4, lsl fp
 c64:	ed030400 	cfstrs	mvf0, [r3, #-0]
 c68:	02000002 	andeq	r0, r0, #2
 c6c:	010b1423 	tsteq	fp, r3, lsr #8
 c70:	03060000 	movweq	r0, #24576	; 0x6000
 c74:	00000339 	andeq	r0, r0, r9, lsr r3
 c78:	040e2402 	streq	r2, [lr], #-1026	; 0xfffffbfe
 c7c:	08000001 	stmdaeq	r0, {r0}
 c80:	0002e703 	andeq	lr, r2, r3, lsl #14
 c84:	0e250200 	cdpeq	2, 2, cr0, cr5, cr0, {0}
 c88:	00000104 	andeq	r0, r0, r4, lsl #2
 c8c:	034d030c 	movteq	r0, #54028	; 0xd30c
 c90:	26020000 	strcs	r0, [r2], -r0
 c94:	0001120f 	andeq	r1, r1, pc, lsl #4
 c98:	31031000 	mrscc	r1, (UNDEF: 3)
 c9c:	02000003 	andeq	r0, r0, #3
 ca0:	01120f27 	tsteq	r2, r7, lsr #30
 ca4:	03110000 	tsteq	r1, #0
 ca8:	000002f7 	strdeq	r0, [r0], -r7
 cac:	0b142802 	bleq	50acbc <startup-0x1faf5344>
 cb0:	12000001 	andne	r0, r0, #1
 cb4:	00030b03 	andeq	r0, r3, r3, lsl #22
 cb8:	0f290200 	svceq	0x00290200
 cbc:	00000112 	andeq	r0, r0, r2, lsl r1
 cc0:	01ff0314 	mvnseq	r0, r4, lsl r3
 cc4:	2a020000 	bcs	80ccc <startup-0x1ff7f334>
 cc8:	0001120f 	andeq	r1, r1, pc, lsl #4
 ccc:	01031500 	tsteq	r3, r0, lsl #10
 cd0:	02000003 	andeq	r0, r0, #3
 cd4:	010b142b 	tsteq	fp, fp, lsr #8
 cd8:	03160000 	tsteq	r6, #0
 cdc:	000001de 	ldrdeq	r0, [r0], -lr
 ce0:	040e2c02 	streq	r2, [lr], #-3074	; 0xfffff3fe
 ce4:	18000001 	stmdane	r0, {r0}
 ce8:	0001c603 	andeq	ip, r1, r3, lsl #12
 cec:	142d0200 	strtne	r0, [sp], #-512	; 0xfffffe00
 cf0:	0000010b 	andeq	r0, r0, fp, lsl #2
 cf4:	01f5031c 	mvnseq	r0, ip, lsl r3
 cf8:	2e020000 	cdpcs	0, 0, cr0, cr2, cr0, {0}
 cfc:	00010b14 	andeq	r0, r1, r4, lsl fp
 d00:	a3031e00 	movwge	r1, #15872	; 0x3e00
 d04:	02000002 	andeq	r0, r0, #2
 d08:	01040e2f 	tsteq	r4, pc, lsr #28
 d0c:	03200000 	nopeq	{0}	; <UNPREDICTABLE>
 d10:	0000029e 	muleq	r0, lr, r2
 d14:	040e3002 	streq	r3, [lr], #-2
 d18:	24000001 	strcs	r0, [r0], #-1
 d1c:	00250400 	eoreq	r0, r5, r0, lsl #8
 d20:	04050000 	streq	r0, [r5], #-0
 d24:	00009807 	andeq	r9, r0, r7, lsl #16
 d28:	07020500 	streq	r0, [r2, -r0, lsl #10]
 d2c:	00000092 	muleq	r0, r2, r0
 d30:	84080105 	strhi	r0, [r8], #-261	; 0xfffffefb
 d34:	06000000 	streq	r0, [r0], -r0
 d38:	00000298 	muleq	r0, r8, r2
 d3c:	250a3102 	strcs	r3, [sl, #-258]	; 0xfffffefe
 d40:	07000001 	streq	r0, [r0, -r1]
 d44:	0000ff04 	andeq	pc, r0, r4, lsl #30
 d48:	05040800 	streq	r0, [r4, #-2048]	; 0xfffff800
 d4c:	00746e69 	rsbseq	r6, r4, r9, ror #28
 d50:	0004a009 	andeq	sl, r4, r9
 d54:	061c0100 	ldreq	r0, [ip], -r0, lsl #2
 d58:	20000a20 	andcs	r0, r0, r0, lsr #20
 d5c:	00000016 	andeq	r0, r0, r6, lsl r0
 d60:	d70a9c01 	strle	r9, [sl, -r1, lsl #24]
 d64:	01000006 	tsteq	r0, r6
 d68:	09e40614 	stmibeq	r4!, {r2, r4, r9, sl}^
 d6c:	003c2000 	eorseq	r2, ip, r0
 d70:	9c010000 	stcls	0, cr0, [r1], {-0}
 d74:	00065c0a 	andeq	r5, r6, sl, lsl #24
 d78:	060d0100 	streq	r0, [sp], -r0, lsl #2
 d7c:	200009bc 			; <UNDEFINED> instruction: 0x200009bc
 d80:	00000028 	andeq	r0, r0, r8, lsr #32
 d84:	500a9c01 	andpl	r9, sl, r1, lsl #24
 d88:	01000006 	tsteq	r0, r6
 d8c:	09900705 	ldmibeq	r0, {r0, r2, r8, r9, sl}
 d90:	002c2000 	eoreq	r2, ip, r0
 d94:	9c010000 	stcls	0, cr0, [r1], {-0}
	...

Disassembly of section .debug_abbrev:

00000000 <.debug_abbrev>:
   0:	25011101 	strcs	r1, [r1, #-257]	; 0xfffffeff
   4:	030b130e 	movweq	r1, #45838	; 0xb30e
   8:	110e1b0e 	tstne	lr, lr, lsl #22
   c:	10061201 	andne	r1, r6, r1, lsl #4
  10:	02000017 	andeq	r0, r0, #23
  14:	0b0b0024 	bleq	2c00ac <startup-0x1fd3ff54>
  18:	0e030b3e 	vmoveq.16	d3[0], r0
  1c:	24030000 	strcs	r0, [r3], #-0
  20:	3e0b0b00 	vmlacc.f64	d0, d11, d0
  24:	0008030b 	andeq	r0, r8, fp, lsl #6
  28:	012e0400 			; <UNDEFINED> instruction: 0x012e0400
  2c:	0e03193f 			; <UNDEFINED> instruction: 0x0e03193f
  30:	0b3b0b3a 	bleq	ec2d20 <startup-0x1f13d2e0>
  34:	19270b39 	stmdbne	r7!, {r0, r3, r4, r5, r8, r9, fp}
  38:	01111349 	tsteq	r1, r9, asr #6
  3c:	18400612 	stmdane	r0, {r1, r4, r9, sl}^
  40:	01194296 			; <UNDEFINED> instruction: 0x01194296
  44:	05000013 	streq	r0, [r0, #-19]	; 0xffffffed
  48:	08030005 	stmdaeq	r3, {r0, r2}
  4c:	0b3b0b3a 	bleq	ec2d3c <startup-0x1f13d2c4>
  50:	13490b39 	movtne	r0, #39737	; 0x9b39
  54:	00001802 	andeq	r1, r0, r2, lsl #16
  58:	03003406 	movweq	r3, #1030	; 0x406
  5c:	3b0b3a0e 	blcc	2ce89c <startup-0x1fd31764>
  60:	490b390b 	stmdbmi	fp, {r0, r1, r3, r8, fp, ip, sp}
  64:	00180213 	andseq	r0, r8, r3, lsl r2
  68:	00340700 	eorseq	r0, r4, r0, lsl #14
  6c:	0b3a0803 	bleq	e82080 <startup-0x1f17df80>
  70:	0b390b3b 	bleq	e42d64 <startup-0x1f1bd29c>
  74:	18021349 	stmdane	r2, {r0, r3, r6, r8, r9, ip}
  78:	2e080000 	cdpcs	0, 0, cr0, cr8, cr0, {0}
  7c:	03193f01 	tsteq	r9, #1, 30
  80:	3b0b3a0e 	blcc	2ce8c0 <startup-0x1fd31740>
  84:	270b390b 	strcs	r3, [fp, -fp, lsl #18]
  88:	12011119 	andne	r1, r1, #1073741830	; 0x40000006
  8c:	96184006 	ldrls	r4, [r8], -r6
  90:	13011942 	movwne	r1, #6466	; 0x1942
  94:	0b090000 	bleq	24009c <startup-0x1fdbff64>
  98:	12011101 	andne	r1, r1, #1073741824	; 0x40000000
  9c:	0a000006 	beq	bc <startup-0x1fffff44>
  a0:	193f002e 	ldmdbne	pc!, {r1, r2, r3, r5}	; <UNPREDICTABLE>
  a4:	0b3a0e03 	bleq	e838b8 <startup-0x1f17c748>
  a8:	0b390b3b 	bleq	e42d9c <startup-0x1f1bd264>
  ac:	01111927 	tsteq	r1, r7, lsr #18
  b0:	18400612 	stmdane	r0, {r1, r4, r9, sl}^
  b4:	00194297 	mulseq	r9, r7, r2
  b8:	11010000 	mrsne	r0, (UNDEF: 1)
  bc:	130e2501 	movwne	r2, #58625	; 0xe501
  c0:	1b0e030b 	blne	380cf4 <startup-0x1fc7f30c>
  c4:	1201110e 	andne	r1, r1, #-2147483645	; 0x80000003
  c8:	00171006 	andseq	r1, r7, r6
  cc:	01130200 	tsteq	r3, r0, lsl #4
  d0:	0b3a0b0b 	bleq	e82d04 <startup-0x1f17d2fc>
  d4:	0b390b3b 	bleq	e42dc8 <startup-0x1f1bd238>
  d8:	00001301 	andeq	r1, r0, r1, lsl #6
  dc:	03000d03 	movweq	r0, #3331	; 0xd03
  e0:	3b0b3a0e 	blcc	2ce920 <startup-0x1fd316e0>
  e4:	490b390b 	stmdbmi	fp, {r0, r1, r3, r8, fp, ip, sp}
  e8:	000b3813 	andeq	r3, fp, r3, lsl r8
  ec:	00350400 	eorseq	r0, r5, r0, lsl #8
  f0:	00001349 	andeq	r1, r0, r9, asr #6
  f4:	0b002405 	bleq	9110 <startup-0x1fff6ef0>
  f8:	030b3e0b 	movweq	r3, #48651	; 0xbe0b
  fc:	0600000e 	streq	r0, [r0], -lr
 100:	0e030016 	mcreq	0, 0, r0, cr3, cr6, {0}
 104:	0b3b0b3a 	bleq	ec2df4 <startup-0x1f13d20c>
 108:	13490b39 	movtne	r0, #39737	; 0x9b39
 10c:	0f070000 	svceq	0x00070000
 110:	490b0b00 	stmdbmi	fp, {r8, r9, fp}
 114:	08000013 	stmdaeq	r0, {r0, r1, r4}
 118:	0b0b0024 	bleq	2c01b0 <startup-0x1fd3fe50>
 11c:	08030b3e 	stmdaeq	r3, {r1, r2, r3, r4, r5, r8, r9, fp}
 120:	2e090000 	cdpcs	0, 0, cr0, cr9, cr0, {0}
 124:	03193f01 	tsteq	r9, #1, 30
 128:	3b0b3a0e 	blcc	2ce968 <startup-0x1fd31698>
 12c:	270b390b 	strcs	r3, [fp, -fp, lsl #18]
 130:	11134919 	tstne	r3, r9, lsl r9
 134:	40061201 	andmi	r1, r6, r1, lsl #4
 138:	19429618 	stmdbne	r2, {r3, r4, r9, sl, ip, pc}^
 13c:	00001301 	andeq	r1, r0, r1, lsl #6
 140:	0300050a 	movweq	r0, #1290	; 0x50a
 144:	3b0b3a0e 	blcc	2ce984 <startup-0x1fd3167c>
 148:	490b390b 	stmdbmi	fp, {r0, r1, r3, r8, fp, ip, sp}
 14c:	00180213 	andseq	r0, r8, r3, lsl r2
 150:	00340b00 	eorseq	r0, r4, r0, lsl #22
 154:	0b3a0803 	bleq	e82168 <startup-0x1f17de98>
 158:	0b390b3b 	bleq	e42e4c <startup-0x1f1bd1b4>
 15c:	18021349 	stmdane	r2, {r0, r3, r6, r8, r9, ip}
 160:	2e0c0000 	cdpcs	0, 0, cr0, cr12, cr0, {0}
 164:	03193f01 	tsteq	r9, #1, 30
 168:	3b0b3a0e 	blcc	2ce9a8 <startup-0x1fd31658>
 16c:	270b390b 	strcs	r3, [fp, -fp, lsl #18]
 170:	12011119 	andne	r1, r1, #1073741830	; 0x40000006
 174:	96184006 	ldrls	r4, [r8], -r6
 178:	13011942 	movwne	r1, #6466	; 0x1942
 17c:	050d0000 	streq	r0, [sp, #-0]
 180:	3a080300 	bcc	200d88 <startup-0x1fdff278>
 184:	390b3b0b 	stmdbcc	fp, {r0, r1, r3, r8, r9, fp, ip, sp}
 188:	0213490b 	andseq	r4, r3, #180224	; 0x2c000
 18c:	0e000018 	mcreq	0, 0, r0, cr0, cr8, {0}
 190:	193f002e 	ldmdbne	pc!, {r1, r2, r3, r5}	; <UNPREDICTABLE>
 194:	0b3a0e03 	bleq	e839a8 <startup-0x1f17c658>
 198:	0b390b3b 	bleq	e42e8c <startup-0x1f1bd174>
 19c:	01111927 	tsteq	r1, r7, lsr #18
 1a0:	18400612 	stmdane	r0, {r1, r4, r9, sl}^
 1a4:	00194296 	mulseq	r9, r6, r2
 1a8:	012e0f00 			; <UNDEFINED> instruction: 0x012e0f00
 1ac:	0e03193f 			; <UNDEFINED> instruction: 0x0e03193f
 1b0:	0b3b0b3a 	bleq	ec2ea0 <startup-0x1f13d160>
 1b4:	19270b39 	stmdbne	r7!, {r0, r3, r4, r5, r8, r9, fp}
 1b8:	06120111 			; <UNDEFINED> instruction: 0x06120111
 1bc:	42971840 	addsmi	r1, r7, #64, 16	; 0x400000
 1c0:	00130119 	andseq	r0, r3, r9, lsl r1
 1c4:	012e1000 			; <UNDEFINED> instruction: 0x012e1000
 1c8:	0e03193f 			; <UNDEFINED> instruction: 0x0e03193f
 1cc:	0b3b0b3a 	bleq	ec2ebc <startup-0x1f13d144>
 1d0:	19270b39 	stmdbne	r7!, {r0, r3, r4, r5, r8, r9, fp}
 1d4:	06120111 			; <UNDEFINED> instruction: 0x06120111
 1d8:	42971840 	addsmi	r1, r7, #64, 16	; 0x400000
 1dc:	00000019 	andeq	r0, r0, r9, lsl r0
 1e0:	25011101 	strcs	r1, [r1, #-257]	; 0xfffffeff
 1e4:	030b130e 	movweq	r1, #45838	; 0xb30e
 1e8:	550e1b0e 	strpl	r1, [lr, #-2830]	; 0xfffff4f2
 1ec:	10011117 	andne	r1, r1, r7, lsl r1
 1f0:	02000017 	andeq	r0, r0, #23
 1f4:	0b0b0024 	bleq	2c028c <startup-0x1fd3fd74>
 1f8:	0e030b3e 	vmoveq.16	d3[0], r0
 1fc:	13030000 	movwne	r0, #12288	; 0x3000
 200:	3a0b0b01 	bcc	2c2e0c <startup-0x1fd3d1f4>
 204:	390b3b0b 	stmdbcc	fp, {r0, r1, r3, r8, r9, fp, ip, sp}
 208:	0013010b 	andseq	r0, r3, fp, lsl #2
 20c:	000d0400 	andeq	r0, sp, r0, lsl #8
 210:	0b3a0803 	bleq	e82224 <startup-0x1f17dddc>
 214:	0b390b3b 	bleq	e42f08 <startup-0x1f1bd0f8>
 218:	0b381349 	bleq	e04f44 <startup-0x1f1fb0bc>
 21c:	16050000 	strne	r0, [r5], -r0
 220:	3a0e0300 	bcc	380e28 <startup-0x1fc7f1d8>
 224:	390b3b0b 	stmdbcc	fp, {r0, r1, r3, r8, r9, fp, ip, sp}
 228:	0013490b 	andseq	r4, r3, fp, lsl #18
 22c:	01130600 	tsteq	r3, r0, lsl #12
 230:	0b3a050b 	bleq	e81664 <startup-0x1f17e99c>
 234:	0b390b3b 	bleq	e42f28 <startup-0x1f1bd0d8>
 238:	00001301 	andeq	r1, r0, r1, lsl #6
 23c:	03000d07 	movweq	r0, #3335	; 0xd07
 240:	3b0b3a0e 	blcc	2cea80 <startup-0x1fd31580>
 244:	490b390b 	stmdbmi	fp, {r0, r1, r3, r8, fp, ip, sp}
 248:	000b3813 	andeq	r3, fp, r3, lsl r8
 24c:	00240800 	eoreq	r0, r4, r0, lsl #16
 250:	0b3e0b0b 	bleq	f82e84 <startup-0x1f07d17c>
 254:	00000803 	andeq	r0, r0, r3, lsl #16
 258:	49010109 	stmdbmi	r1, {r0, r3, r8}
 25c:	00130113 	andseq	r0, r3, r3, lsl r1
 260:	00210a00 	eoreq	r0, r1, r0, lsl #20
 264:	052f1349 	streq	r1, [pc, #-841]!	; ffffff23 <points+0xdfff6173>
 268:	0f0b0000 	svceq	0x000b0000
 26c:	490b0b00 	stmdbmi	fp, {r8, r9, fp}
 270:	0c000013 	stceq	0, cr0, [r0], {19}
 274:	0e030113 	mcreq	1, 0, r0, cr3, cr3, {0}
 278:	0b3a0b0b 	bleq	e82eac <startup-0x1f17d154>
 27c:	0b390b3b 	bleq	e42f70 <startup-0x1f1bd090>
 280:	00001301 	andeq	r1, r0, r1, lsl #6
 284:	2701150d 	strcs	r1, [r1, -sp, lsl #10]
 288:	00130119 	andseq	r0, r3, r9, lsl r1
 28c:	00050e00 	andeq	r0, r5, r0, lsl #28
 290:	00001349 	andeq	r1, r0, r9, asr #6
 294:	0300340f 	movweq	r3, #1039	; 0x40f
 298:	3b0b3a0e 	blcc	2cead8 <startup-0x1fd31528>
 29c:	490b390b 	stmdbmi	fp, {r0, r1, r3, r8, fp, ip, sp}
 2a0:	02193f13 	andseq	r3, r9, #19, 30	; 0x4c
 2a4:	10000018 	andne	r0, r0, r8, lsl r0
 2a8:	0e030034 	mcreq	0, 0, r0, cr3, cr4, {1}
 2ac:	0b3b0b3a 	bleq	ec2f9c <startup-0x1f13d064>
 2b0:	13490b39 	movtne	r0, #39737	; 0x9b39
 2b4:	00001802 	andeq	r1, r0, r2, lsl #16
 2b8:	3f012e11 	svccc	0x00012e11
 2bc:	3a0e0319 	bcc	380f28 <startup-0x1fc7f0d8>
 2c0:	390b3b0b 	stmdbcc	fp, {r0, r1, r3, r8, r9, fp, ip, sp}
 2c4:	1119270b 	tstne	r9, fp, lsl #14
 2c8:	40061201 	andmi	r1, r6, r1, lsl #4
 2cc:	19429618 	stmdbne	r2, {r3, r4, r9, sl, ip, pc}^
 2d0:	00001301 	andeq	r1, r0, r1, lsl #6
 2d4:	03003412 	movweq	r3, #1042	; 0x412
 2d8:	3b0b3a08 	blcc	2ceb00 <startup-0x1fd31500>
 2dc:	490b390b 	stmdbmi	fp, {r0, r1, r3, r8, fp, ip, sp}
 2e0:	00180213 	andseq	r0, r8, r3, lsl r2
 2e4:	012e1300 			; <UNDEFINED> instruction: 0x012e1300
 2e8:	0e03193f 			; <UNDEFINED> instruction: 0x0e03193f
 2ec:	0b3b0b3a 	bleq	ec2fdc <startup-0x1f13d024>
 2f0:	13490b39 	movtne	r0, #39737	; 0x9b39
 2f4:	0000193c 	andeq	r1, r0, ip, lsr r9
 2f8:	00001814 	andeq	r1, r0, r4, lsl r8
 2fc:	00211500 	eoreq	r1, r1, r0, lsl #10
 300:	0b2f1349 	bleq	bc502c <startup-0x1f43afd4>
 304:	2e160000 	cdpcs	0, 1, cr0, cr6, cr0, {0}
 308:	03193f01 	tsteq	r9, #1, 30
 30c:	3b0b3a0e 	blcc	2ceb4c <startup-0x1fd314b4>
 310:	270b390b 	strcs	r3, [fp, -fp, lsl #18]
 314:	11134919 	tstne	r3, r9, lsl r9
 318:	40061201 	andmi	r1, r6, r1, lsl #4
 31c:	19429718 	stmdbne	r2, {r3, r4, r8, r9, sl, ip, pc}^
 320:	00001301 	andeq	r1, r0, r1, lsl #6
 324:	03000517 	movweq	r0, #1303	; 0x517
 328:	3b0b3a0e 	blcc	2ceb68 <startup-0x1fd31498>
 32c:	490b390b 	stmdbmi	fp, {r0, r1, r3, r8, fp, ip, sp}
 330:	00180213 	andseq	r0, r8, r3, lsl r2
 334:	00051800 	andeq	r1, r5, r0, lsl #16
 338:	0b3a0803 	bleq	e8234c <startup-0x1f17dcb4>
 33c:	0b390b3b 	bleq	e43030 <startup-0x1f1bcfd0>
 340:	18021349 	stmdane	r2, {r0, r3, r6, r8, r9, ip}
 344:	0b190000 	bleq	64034c <startup-0x1f9bfcb4>
 348:	12011101 	andne	r1, r1, #1073741824	; 0x40000000
 34c:	1a000006 	bne	36c <startup-0x1ffffc94>
 350:	0e03012e 	adfeqsp	f0, f3, #0.5
 354:	0b3b0b3a 	bleq	ec3044 <startup-0x1f13cfbc>
 358:	19270b39 	stmdbne	r7!, {r0, r3, r4, r5, r8, r9, fp}
 35c:	01111349 	tsteq	r1, r9, asr #6
 360:	18400612 	stmdane	r0, {r1, r4, r9, sl}^
 364:	01194297 			; <UNDEFINED> instruction: 0x01194297
 368:	1b000013 	blne	3bc <startup-0x1ffffc44>
 36c:	193f012e 	ldmdbne	pc!, {r1, r2, r3, r5, r8}	; <UNPREDICTABLE>
 370:	0b3a0e03 	bleq	e83b84 <startup-0x1f17c47c>
 374:	0b390b3b 	bleq	e43068 <startup-0x1f1bcf98>
 378:	01111927 	tsteq	r1, r7, lsr #18
 37c:	18400612 	stmdane	r0, {r1, r4, r9, sl}^
 380:	01194297 			; <UNDEFINED> instruction: 0x01194297
 384:	1c000013 	stcne	0, cr0, [r0], {19}
 388:	193f002e 	ldmdbne	pc!, {r1, r2, r3, r5}	; <UNPREDICTABLE>
 38c:	0b3a0e03 	bleq	e83ba0 <startup-0x1f17c460>
 390:	0b390b3b 	bleq	e43084 <startup-0x1f1bcf7c>
 394:	01111927 	tsteq	r1, r7, lsr #18
 398:	18400612 	stmdane	r0, {r1, r4, r9, sl}^
 39c:	00194297 	mulseq	r9, r7, r2
 3a0:	11010000 	mrsne	r0, (UNDEF: 1)
 3a4:	130e2501 	movwne	r2, #58625	; 0xe501
 3a8:	1b0e030b 	blne	380fdc <startup-0x1fc7f024>
 3ac:	1201110e 	andne	r1, r1, #-2147483645	; 0x80000003
 3b0:	00171006 	andseq	r1, r7, r6
 3b4:	01130200 	tsteq	r3, r0, lsl #4
 3b8:	0b3a0b0b 	bleq	e82fec <startup-0x1f17d014>
 3bc:	0b390b3b 	bleq	e430b0 <startup-0x1f1bcf50>
 3c0:	00001301 	andeq	r1, r0, r1, lsl #6
 3c4:	03000d03 	movweq	r0, #3331	; 0xd03
 3c8:	3b0b3a0e 	blcc	2cec08 <startup-0x1fd313f8>
 3cc:	490b390b 	stmdbmi	fp, {r0, r1, r3, r8, fp, ip, sp}
 3d0:	000b3813 	andeq	r3, fp, r3, lsl r8
 3d4:	00350400 	eorseq	r0, r5, r0, lsl #8
 3d8:	00001349 	andeq	r1, r0, r9, asr #6
 3dc:	0b002405 	bleq	93f8 <startup-0x1fff6c08>
 3e0:	030b3e0b 	movweq	r3, #48651	; 0xbe0b
 3e4:	0600000e 	streq	r0, [r0], -lr
 3e8:	0e030016 	mcreq	0, 0, r0, cr3, cr6, {0}
 3ec:	0b3b0b3a 	bleq	ec30dc <startup-0x1f13cf24>
 3f0:	13490b39 	movtne	r0, #39737	; 0x9b39
 3f4:	0f070000 	svceq	0x00070000
 3f8:	490b0b00 	stmdbmi	fp, {r8, r9, fp}
 3fc:	08000013 	stmdaeq	r0, {r0, r1, r4}
 400:	0b0b0024 	bleq	2c0498 <startup-0x1fd3fb68>
 404:	08030b3e 	stmdaeq	r3, {r1, r2, r3, r4, r5, r8, r9, fp}
 408:	2e090000 	cdpcs	0, 0, cr0, cr9, cr0, {0}
 40c:	03193f01 	tsteq	r9, #1, 30
 410:	3b0b3a0e 	blcc	2cec50 <startup-0x1fd313b0>
 414:	270b390b 	strcs	r3, [fp, -fp, lsl #18]
 418:	11134919 	tstne	r3, r9, lsl r9
 41c:	40061201 	andmi	r1, r6, r1, lsl #4
 420:	19429618 	stmdbne	r2, {r3, r4, r9, sl, ip, pc}^
 424:	00001301 	andeq	r1, r0, r1, lsl #6
 428:	0300340a 	movweq	r3, #1034	; 0x40a
 42c:	3b0b3a08 	blcc	2cec54 <startup-0x1fd313ac>
 430:	490b390b 	stmdbmi	fp, {r0, r1, r3, r8, fp, ip, sp}
 434:	00180213 	andseq	r0, r8, r3, lsl r2
 438:	01010b00 	tsteq	r1, r0, lsl #22
 43c:	13011349 	movwne	r1, #4937	; 0x1349
 440:	210c0000 	mrscs	r0, (UNDEF: 12)
 444:	2f134900 	svccs	0x00134900
 448:	0d00000b 	stceq	0, cr0, [r0, #-44]	; 0xffffffd4
 44c:	193f012e 	ldmdbne	pc!, {r1, r2, r3, r5, r8}	; <UNPREDICTABLE>
 450:	0b3a0e03 	bleq	e83c64 <startup-0x1f17c39c>
 454:	0b390b3b 	bleq	e43148 <startup-0x1f1bceb8>
 458:	13491927 	movtne	r1, #39207	; 0x9927
 45c:	06120111 			; <UNDEFINED> instruction: 0x06120111
 460:	42971840 	addsmi	r1, r7, #64, 16	; 0x400000
 464:	00130119 	andseq	r0, r3, r9, lsl r1
 468:	012e0e00 			; <UNDEFINED> instruction: 0x012e0e00
 46c:	0e03193f 			; <UNDEFINED> instruction: 0x0e03193f
 470:	0b3b0b3a 	bleq	ec3160 <startup-0x1f13cea0>
 474:	19270b39 	stmdbne	r7!, {r0, r3, r4, r5, r8, r9, fp}
 478:	06120111 			; <UNDEFINED> instruction: 0x06120111
 47c:	42971840 	addsmi	r1, r7, #64, 16	; 0x400000
 480:	0f000019 	svceq	0x00000019
 484:	08030005 	stmdaeq	r3, {r0, r2}
 488:	0b3b0b3a 	bleq	ec3178 <startup-0x1f13ce88>
 48c:	13490b39 	movtne	r0, #39737	; 0x9b39
 490:	00001802 	andeq	r1, r0, r2, lsl #16
 494:	01110100 	tsteq	r1, r0, lsl #2
 498:	0b130e25 	bleq	4c3d34 <startup-0x1fb3c2cc>
 49c:	0e1b0e03 	cdpeq	14, 1, cr0, cr11, cr3, {0}
 4a0:	06120111 			; <UNDEFINED> instruction: 0x06120111
 4a4:	00001710 	andeq	r1, r0, r0, lsl r7
 4a8:	0b011302 	bleq	450b8 <startup-0x1ffbaf48>
 4ac:	3b0b3a0b 	blcc	2cece0 <startup-0x1fd31320>
 4b0:	010b390b 	tsteq	fp, fp, lsl #18
 4b4:	03000013 	movweq	r0, #19
 4b8:	0e03000d 	cdpeq	0, 0, cr0, cr3, cr13, {0}
 4bc:	0b3b0b3a 	bleq	ec31ac <startup-0x1f13ce54>
 4c0:	13490b39 	movtne	r0, #39737	; 0x9b39
 4c4:	00000b38 	andeq	r0, r0, r8, lsr fp
 4c8:	49003504 	stmdbmi	r0, {r2, r8, sl, ip, sp}
 4cc:	05000013 	streq	r0, [r0, #-19]	; 0xffffffed
 4d0:	0b0b0024 	bleq	2c0568 <startup-0x1fd3fa98>
 4d4:	0e030b3e 	vmoveq.16	d3[0], r0
 4d8:	16060000 	strne	r0, [r6], -r0
 4dc:	3a0e0300 	bcc	3810e4 <startup-0x1fc7ef1c>
 4e0:	390b3b0b 	stmdbcc	fp, {r0, r1, r3, r8, r9, fp, ip, sp}
 4e4:	0013490b 	andseq	r4, r3, fp, lsl #18
 4e8:	000f0700 	andeq	r0, pc, r0, lsl #14
 4ec:	13490b0b 	movtne	r0, #39691	; 0x9b0b
 4f0:	24080000 	strcs	r0, [r8], #-0
 4f4:	3e0b0b00 	vmlacc.f64	d0, d11, d0
 4f8:	0008030b 	andeq	r0, r8, fp, lsl #6
 4fc:	002e0900 	eoreq	r0, lr, r0, lsl #18
 500:	0e03193f 			; <UNDEFINED> instruction: 0x0e03193f
 504:	0b3b0b3a 	bleq	ec31f4 <startup-0x1f13ce0c>
 508:	01110b39 	tsteq	r1, r9, lsr fp
 50c:	18400612 	stmdane	r0, {r1, r4, r9, sl}^
 510:	00194296 	mulseq	r9, r6, r2
 514:	002e0a00 	eoreq	r0, lr, r0, lsl #20
 518:	0e03193f 			; <UNDEFINED> instruction: 0x0e03193f
 51c:	0b3b0b3a 	bleq	ec320c <startup-0x1f13cdf4>
 520:	01110b39 	tsteq	r1, r9, lsr fp
 524:	18400612 	stmdane	r0, {r1, r4, r9, sl}^
 528:	00194297 	mulseq	r9, r7, r2
	...

Disassembly of section .debug_aranges:

00000000 <.debug_aranges>:
   0:	0000001c 	andeq	r0, r0, ip, lsl r0
   4:	00000002 	andeq	r0, r0, r2
   8:	00040000 	andeq	r0, r4, r0
   c:	00000000 	andeq	r0, r0, r0
  10:	20000010 	andcs	r0, r0, r0, lsl r0
  14:	00000104 	andeq	r0, r0, r4, lsl #2
	...
  20:	0000001c 	andeq	r0, r0, ip, lsl r0
  24:	01110002 	tsteq	r1, r2
  28:	00040000 	andeq	r0, r4, r0
  2c:	00000000 	andeq	r0, r0, r0
  30:	20000114 	andcs	r0, r0, r4, lsl r1
  34:	00000310 	andeq	r0, r0, r0, lsl r3
	...
  40:	00000024 	andeq	r0, r0, r4, lsr #32
  44:	04790002 	ldrbteq	r0, [r9], #-2
  48:	00040000 	andeq	r0, r4, r0
  4c:	00000000 	andeq	r0, r0, r0
  50:	20000424 	andcs	r0, r0, r4, lsr #8
  54:	0000044c 	andeq	r0, r0, ip, asr #8
  58:	20000000 	andcs	r0, r0, r0
  5c:	0000000c 	andeq	r0, r0, ip
	...
  68:	0000001c 	andeq	r0, r0, ip, lsl r0
  6c:	0a490002 	beq	124007c <startup-0x1edbff84>
  70:	00040000 	andeq	r0, r4, r0
  74:	00000000 	andeq	r0, r0, r0
  78:	20000870 	andcs	r0, r0, r0, ror r8
  7c:	00000120 	andeq	r0, r0, r0, lsr #2
	...
  88:	0000001c 	andeq	r0, r0, ip, lsl r0
  8c:	0c1e0002 	ldceq	0, cr0, [lr], {2}
  90:	00040000 	andeq	r0, r4, r0
  94:	00000000 	andeq	r0, r0, r0
  98:	20000990 	mulcs	r0, r0, r9
  9c:	000000a6 	andeq	r0, r0, r6, lsr #1
	...

Disassembly of section .debug_line:

00000000 <.debug_line>:
   0:	00000145 	andeq	r0, r0, r5, asr #2
   4:	00930003 	addseq	r0, r3, r3
   8:	01020000 	mrseq	r0, (UNDEF: 2)
   c:	000d0efb 	strdeq	r0, [sp], -fp
  10:	01010101 	tsteq	r1, r1, lsl #2
  14:	01000000 	mrseq	r0, (UNDEF: 0)
  18:	43010000 	movwmi	r0, #4096	; 0x1000
  1c:	73552f3a 	cmpvc	r5, #58, 30	; 0xe8
  20:	2f737265 	svccs	0x00737265
  24:	61696c45 	cmnvs	r9, r5, asr #24
  28:	6e4f2f73 	mcrvs	15, 2, r2, cr15, cr3, {3}
  2c:	69724465 	ldmdbvs	r2!, {r0, r2, r5, r6, sl, lr}^
  30:	2d206576 	cfstr32cs	mvfx6, [r0, #-472]!	; 0xfffffe28
  34:	61684320 	cmnvs	r8, r0, lsr #6
  38:	72656d6c 	rsbvc	r6, r5, #108, 26	; 0x1b00
  3c:	74532073 	ldrbvc	r2, [r3], #-115	; 0xffffff8d
  40:	6e656475 	mcrvs	4, 3, r6, cr5, cr5, {3}
  44:	442f7374 	strtmi	r7, [pc], #-884	; 4c <startup-0x1fffffb4>
  48:	6d75636f 	ldclvs	3, cr6, [r5, #-444]!	; 0xfffffe44
  4c:	73746e65 	cmnvc	r4, #1616	; 0x650
  50:	7574532f 	ldrbvc	r5, [r4, #-815]!	; 0xfffffcd1
  54:	73656964 	cmnvc	r5, #100, 18	; 0x190000
  58:	6f72502f 	svcvs	0x0072502f
  5c:	6d617267 	sfmvs	f7, 2, [r1, #-412]!	; 0xfffffe64
  60:	2f676e69 	svccs	0x00676e69
  64:	2f706f6d 	svccs	0x00706f6d
  68:	726f5763 	rsbvc	r5, pc, #25952256	; 0x18c0000
  6c:	6170536b 	cmnvs	r0, fp, ror #6
  70:	632f6563 			; <UNDEFINED> instruction: 0x632f6563
  74:	6b726f57 	blvs	1c9bdd8 <startup-0x1e364228>
  78:	63617053 	cmnvs	r1, #83	; 0x53
  7c:	6e732f65 	cdpvs	15, 7, cr2, cr3, cr5, {3}
  80:	00656b61 	rsbeq	r6, r5, r1, ror #22
  84:	756f6300 	strbvc	r6, [pc, #-768]!	; fffffd8c <points+0xdfff5fdc>
  88:	6e69746e 	cdpvs	4, 6, cr7, cr9, cr14, {3}
  8c:	69635f67 	stmdbvs	r3!, {r0, r1, r2, r5, r6, r8, r9, sl, fp, ip, lr}^
  90:	69756372 	ldmdbvs	r5!, {r1, r4, r5, r6, r8, r9, sp, lr}^
  94:	632e7374 			; <UNDEFINED> instruction: 0x632e7374
  98:	00000100 	andeq	r0, r0, r0, lsl #2
  9c:	00010500 	andeq	r0, r1, r0, lsl #10
  a0:	00100205 	andseq	r0, r0, r5, lsl #4
  a4:	05172000 	ldreq	r2, [r7, #-0]
  a8:	0c053002 	stceq	0, cr3, [r5], {2}
  ac:	2f020520 	svccs	0x00020520
  b0:	05200c05 	streq	r0, [r0, #-3077]!	; 0xfffff3fb
  b4:	0b052f02 	bleq	14bcc4 <startup-0x1feb433c>
  b8:	2f020520 	svccs	0x00020520
  bc:	05200c05 	streq	r0, [r0, #-3077]!	; 0xfffff3fb
  c0:	0a052f07 	beq	14bce4 <startup-0x1feb431c>
  c4:	01040200 	mrseq	r0, R12_usr
  c8:	00140520 	andseq	r0, r4, r0, lsr #10
  cc:	2e010402 	cdpcs	4, 0, cr0, cr1, cr2, {0}
  d0:	02000705 	andeq	r0, r0, #1310720	; 0x140000
  d4:	053c0104 	ldreq	r0, [ip, #-260]!	; 0xfffffefc
  d8:	0c052102 	stfeqs	f2, [r5], {2}
  dc:	2f010520 	svccs	0x00010520
  e0:	4c0505a1 	cfstr32mi	mvfx0, [r5], {161}	; 0xa1
  e4:	05830405 	streq	r0, [r3, #1029]	; 0x405
  e8:	0b053e07 	bleq	14f90c <startup-0x1feb06f4>
  ec:	2e030522 	cfsh32cs	mvfx0, mvfx3, #18
  f0:	02001c05 	andeq	r1, r0, #1280	; 0x500
  f4:	05200304 	streq	r0, [r0, #-772]!	; 0xfffffcfc
  f8:	04020018 	streq	r0, [r2], #-24	; 0xffffffe8
  fc:	03052e03 	movweq	r2, #24067	; 0x5e03
 100:	01040200 	mrseq	r0, R12_usr
 104:	3d05053c 	cfstr32cc	mvfx0, [r5, #-240]	; 0xffffff10
 108:	05390705 	ldreq	r0, [r9, #-1797]!	; 0xfffff8fb
 10c:	23054101 	movwcs	r4, #20737	; 0x5101
 110:	4b07055a 	blmi	1c1680 <startup-0x1fe3e980>
 114:	05220305 	streq	r0, [r2, #-773]!	; 0xfffffcfb
 118:	07053d05 	streq	r3, [r5, -r5, lsl #26]
 11c:	41010539 	tstmi	r1, r9, lsr r5
 120:	055e0205 	ldrbeq	r0, [lr, #-517]	; 0xfffffdfb
 124:	11055918 	tstne	r5, r8, lsl r9
 128:	2008053c 	andcs	r0, r8, ip, lsr r5
 12c:	053d1b05 	ldreq	r1, [sp, #-2821]!	; 0xfffff4fb
 130:	25053c21 	strcs	r3, [r5, #-3105]	; 0xfffff3df
 134:	201b053c 	andscs	r0, fp, ip, lsr r5
 138:	054a2905 	strbeq	r2, [sl, #-2309]	; 0xfffff6fb
 13c:	09053c10 	stmdbeq	r5, {r4, sl, fp, ip, sp}
 140:	2f02054b 	svccs	0x0002054b
 144:	01000702 	tsteq	r0, r2, lsl #14
 148:	0001d901 	andeq	sp, r1, r1, lsl #18
 14c:	a1000300 	mrsge	r0, LR_irq
 150:	02000000 	andeq	r0, r0, #0
 154:	0d0efb01 	vstreq	d15, [lr, #-4]
 158:	01010100 	mrseq	r0, (UNDEF: 17)
 15c:	00000001 	andeq	r0, r0, r1
 160:	01000001 	tsteq	r0, r1
 164:	552f3a43 	strpl	r3, [pc, #-2627]!	; fffff729 <points+0xdfff5979>
 168:	73726573 	cmnvc	r2, #482344960	; 0x1cc00000
 16c:	696c452f 	stmdbvs	ip!, {r0, r1, r2, r3, r5, r8, sl, lr}^
 170:	4f2f7361 	svcmi	0x002f7361
 174:	7244656e 	subvc	r6, r4, #461373440	; 0x1b800000
 178:	20657669 	rsbcs	r7, r5, r9, ror #12
 17c:	6843202d 	stmdavs	r3, {r0, r2, r3, r5, sp}^
 180:	656d6c61 	strbvs	r6, [sp, #-3169]!	; 0xfffff39f
 184:	53207372 			; <UNDEFINED> instruction: 0x53207372
 188:	65647574 	strbvs	r7, [r4, #-1396]!	; 0xfffffa8c
 18c:	2f73746e 	svccs	0x0073746e
 190:	75636f44 	strbvc	r6, [r3, #-3908]!	; 0xfffff0bc
 194:	746e656d 	strbtvc	r6, [lr], #-1389	; 0xfffffa93
 198:	74532f73 	ldrbvc	r2, [r3], #-3955	; 0xfffff08d
 19c:	65696475 	strbvs	r6, [r9, #-1141]!	; 0xfffffb8b
 1a0:	72502f73 	subsvc	r2, r0, #460	; 0x1cc
 1a4:	6172676f 	cmnvs	r2, pc, ror #14
 1a8:	676e696d 	strbvs	r6, [lr, -sp, ror #18]!
 1ac:	706f6d2f 	rsbvc	r6, pc, pc, lsr #26
 1b0:	6f57632f 	svcvs	0x0057632f
 1b4:	70536b72 	subsvc	r6, r3, r2, ror fp
 1b8:	2f656361 	svccs	0x00656361
 1bc:	726f5763 	rsbvc	r5, pc, #25952256	; 0x18c0000
 1c0:	6170536b 	cmnvs	r0, fp, ror #6
 1c4:	732f6563 			; <UNDEFINED> instruction: 0x732f6563
 1c8:	656b616e 	strbvs	r6, [fp, #-366]!	; 0xfffffe92
 1cc:	73610000 	cmnvc	r1, #0
 1d0:	5f696963 	svcpl	0x00696963
 1d4:	70736964 	rsbsvc	r6, r3, r4, ror #18
 1d8:	2e79616c 	rpwcsez	f6, f1, #4.0
 1dc:	00010063 	andeq	r0, r1, r3, rrx
 1e0:	63656400 	cmnvs	r5, #0, 8
 1e4:	6172616c 	cmnvs	r2, ip, ror #2
 1e8:	6e6f6974 			; <UNDEFINED> instruction: 0x6e6f6974
 1ec:	00682e73 	rsbeq	r2, r8, r3, ror lr
 1f0:	00000001 	andeq	r0, r0, r1
 1f4:	05000105 	streq	r0, [r0, #-261]	; 0xfffffefb
 1f8:	00011402 	andeq	r1, r1, r2, lsl #8
 1fc:	01090320 	tsteq	r9, r0, lsr #6
 200:	05680605 	strbeq	r0, [r8, #-1541]!	; 0xfffff9fb
 204:	10052004 	andne	r2, r5, r4
 208:	6602054b 	strvs	r0, [r2], -fp, asr #10
 20c:	05201005 	streq	r1, [r0, #-5]!
 210:	05694b01 	strbeq	r4, [r9, #-2817]!	; 0xfffff4ff
 214:	04056806 	streq	r6, [r5], #-2054	; 0xfffff7fa
 218:	4b080520 	blmi	2016a0 <startup-0x1fdfe960>
 21c:	059e0405 	ldreq	r0, [lr, #1029]	; 0x405
 220:	10052f02 	andne	r2, r5, r2, lsl #30
 224:	67010520 	strvs	r0, [r1, -r0, lsr #10]
 228:	68020569 	stmdavs	r2, {r0, r3, r5, r6, r8, sl}
 22c:	2011053d 	andscs	r0, r1, sp, lsr r5
 230:	2f3d0205 	svccs	0x003d0205
 234:	693e0105 	ldmdbvs	lr!, {r0, r2, r8}
 238:	053e0205 	ldreq	r0, [lr, #-517]!	; 0xfffffdfb
 23c:	03053f04 	movweq	r3, #24324	; 0x5f04
 240:	3d020520 	cfstr32cc	mvfx0, [r2, #-128]	; 0xffffff80
 244:	053d0905 	ldreq	r0, [sp, #-2309]!	; 0xfffff6fb
 248:	05772f01 	ldrbeq	r2, [r7, #-3841]!	; 0xfffff0ff
 24c:	3d3d6702 	ldccc	7, cr6, [sp, #-8]!
 250:	4d590105 	ldfmie	f0, [r9, #-20]	; 0xffffffec
 254:	3d670205 	sfmcc	f0, 2, [r7, #-20]!	; 0xffffffec
 258:	5901053d 	stmdbpl	r1, {r0, r2, r3, r4, r5, r8, sl}
 25c:	3e02054d 	cfsh32cc	mvfx0, mvfx2, #45
 260:	05200f05 	streq	r0, [r0, #-3845]!	; 0xfffff0fb
 264:	053d2f02 	ldreq	r2, [sp, #-3842]!	; 0xfffff0fe
 268:	02053d06 	andeq	r3, r5, #384	; 0x180
 26c:	200f055a 	andcs	r0, pc, sl, asr r5	; <UNPREDICTABLE>
 270:	052f0905 	streq	r0, [pc, #-2309]!	; fffff973 <points+0xdfff5bc3>
 274:	05a12f01 	streq	r2, [r1, #3841]!	; 0xf01
 278:	02053d0f 	andeq	r3, r5, #960	; 0x3c0
 27c:	0b053d67 	bleq	14f820 <startup-0x1feb07e0>
 280:	590f053d 	stmdbpl	pc, {r0, r2, r3, r4, r5, r8, sl}	; <UNPREDICTABLE>
 284:	05670905 	strbeq	r0, [r7, #-2309]!	; 0xfffff6fb
 288:	05852f01 	streq	r2, [r5, #3841]	; 0xf01
 28c:	0a056707 	beq	159eb0 <startup-0x1fea6150>
 290:	01040200 	mrseq	r0, R12_usr
 294:	001e0520 	andseq	r0, lr, r0, lsr #10
 298:	3c010402 	cfstrscc	mvf0, [r1], {2}
 29c:	02000705 	andeq	r0, r0, #1310720	; 0x140000
 2a0:	053c0104 	ldreq	r0, [ip, #-260]!	; 0xfffffefc
 2a4:	053d2f02 	ldreq	r2, [sp, #-3842]!	; 0xfffff0fe
 2a8:	18055901 	stmdane	r5, {r0, r8, fp, ip, lr}
 2ac:	3002054c 	andcc	r0, r2, ip, asr #10
 2b0:	3e3d3e3d 	mrccc	14, 1, r3, cr13, cr13, {1}
 2b4:	053d3e3d 	ldreq	r3, [sp, #-3645]!	; 0xfffff1c3
 2b8:	053f3d01 	ldreq	r3, [pc, #-3329]!	; fffff5bf <points+0xdfff580f>
 2bc:	0a056707 	beq	159ee0 <startup-0x1fea6120>
 2c0:	01040200 	mrseq	r0, R12_usr
 2c4:	001e0520 	andseq	r0, lr, r0, lsr #10
 2c8:	3c010402 	cfstrscc	mvf0, [r1], {2}
 2cc:	02000705 	andeq	r0, r0, #1310720	; 0x140000
 2d0:	053c0104 	ldreq	r0, [ip, #-260]!	; 0xfffffefc
 2d4:	593d2f02 	ldmdbpl	sp!, {r1, r8, r9, sl, fp, sp}
 2d8:	4d3d0105 	ldfmis	f0, [sp, #-20]!	; 0xffffffec
 2dc:	05910705 	ldreq	r0, [r1, #1797]	; 0x705
 2e0:	16056704 	strne	r6, [r5], -r4, lsl #14
 2e4:	01040200 	mrseq	r0, R12_usr
 2e8:	5902054a 	stmdbpl	r2, {r1, r3, r6, r8, sl}
 2ec:	4f9f0105 	svcmi	0x009f0105
 2f0:	2f5a0205 	svccs	0x005a0205
 2f4:	054b0405 	strbeq	r0, [fp, #-1029]	; 0xfffffbfb
 2f8:	16052f07 	strne	r2, [r5], -r7, lsl #30
 2fc:	3c030521 	cfstr32cc	mvfx0, [r3], {33}	; 0x21
 300:	05490905 	strbeq	r0, [r9, #-2309]	; 0xfffff6fb
 304:	02052e07 	andeq	r2, r5, #7, 28	; 0x70
 308:	4b040531 	blmi	1017d4 <startup-0x1fefe82c>
 30c:	052f0705 	streq	r0, [pc, #-1797]!	; fffffc0f <points+0xdfff5e5f>
 310:	03052116 	movweq	r2, #20758	; 0x5116
 314:	4909053c 	stmdbmi	r9, {r2, r3, r4, r5, r8, sl}
 318:	052e0705 	streq	r0, [lr, #-1797]!	; 0xfffff8fb
 31c:	01053109 	tsteq	r5, r9, lsl #2
 320:	00040221 	andeq	r0, r4, r1, lsr #4
 324:	03330101 	teqeq	r3, #1073741824	; 0x40000000
 328:	00030000 	andeq	r0, r3, r0
 32c:	00000068 	andeq	r0, r0, r8, rrx
 330:	0efb0102 	cdpeq	1, 15, cr0, cr11, cr2, {0}
 334:	0101000d 	tsteq	r1, sp
 338:	00000101 	andeq	r0, r0, r1, lsl #2
 33c:	00000100 	andeq	r0, r0, r0, lsl #2
 340:	2f3a4301 	svccs	0x003a4301
 344:	72657355 	rsbvc	r7, r5, #1409286145	; 0x54000001
 348:	65682f73 	strbvs	r2, [r8, #-3955]!	; 0xfffff08d
 34c:	2f79726e 	svccs	0x0079726e
 350:	44656e4f 	strbtmi	r6, [r5], #-3663	; 0xfffff1b1
 354:	65766972 	ldrbvs	r6, [r6, #-2418]!	; 0xfffff68e
 358:	726b532f 	rsbvc	r5, fp, #-1140850688	; 0xbc000000
 35c:	6f627669 	svcvs	0x00627669
 360:	562f6472 			; <UNDEFINED> instruction: 0x562f6472
 364:	2f313254 	svccs	0x00313254
 368:	2f504f4d 	svccs	0x00504f4d
 36c:	2f504f4d 	svccs	0x00504f4d
 370:	2f504f4d 	svccs	0x00504f4d
 374:	6b616e73 	blvs	185bd48 <startup-0x1e7a42b8>
 378:	67000065 	strvs	r0, [r0, -r5, rrx]
 37c:	2e656d61 	cdpcs	13, 6, cr6, cr5, cr1, {3}
 380:	00010063 	andeq	r0, r1, r3, rrx
 384:	63656400 	cmnvs	r5, #0, 8
 388:	6172616c 	cmnvs	r2, ip, ror #2
 38c:	6e6f6974 			; <UNDEFINED> instruction: 0x6e6f6974
 390:	00682e73 	rsbeq	r2, r8, r3, ror lr
 394:	00000001 	andeq	r0, r0, r1
 398:	05000105 	streq	r0, [r0, #-261]	; 0xfffffefb
 39c:	00000002 	andeq	r0, r0, r2
 3a0:	21131920 	tstcs	r3, r0, lsr #18
 3a4:	02212f21 	eoreq	r2, r1, #33, 30	; 0x84
 3a8:	01010003 	tsteq	r1, r3
 3ac:	05000105 	streq	r0, [r0, #-261]	; 0xfffffefb
 3b0:	00042402 	andeq	r2, r4, r2, lsl #8
 3b4:	01120320 	tsteq	r2, r0, lsr #6
 3b8:	13210205 			; <UNDEFINED> instruction: 0x13210205
 3bc:	24210105 	strtcs	r0, [r1], #-261	; 0xfffffefb
 3c0:	13210205 			; <UNDEFINED> instruction: 0x13210205
 3c4:	24210105 	strtcs	r0, [r1], #-261	; 0xfffffefb
 3c8:	13210205 			; <UNDEFINED> instruction: 0x13210205
 3cc:	24210105 	strtcs	r0, [r1], #-261	; 0xfffffefb
 3d0:	13210205 			; <UNDEFINED> instruction: 0x13210205
 3d4:	03210105 			; <UNDEFINED> instruction: 0x03210105
 3d8:	1605200b 	strne	r2, [r5], -fp
 3dc:	2e06054b 	cfsh32cs	mvfx0, mvfx6, #43
 3e0:	052f0a05 	streq	r0, [pc, #-2565]!	; fffff9e3 <points+0xdfff5c33>
 3e4:	19052e02 	stmdbne	r5, {r1, r9, sl, fp, sp}
 3e8:	03040200 	movweq	r0, #16896	; 0x4200
 3ec:	00280522 	eoreq	r0, r8, r2, lsr #10
 3f0:	2e030402 	cdpcs	4, 0, cr0, cr3, cr2, {0}
 3f4:	02003205 	andeq	r3, r0, #1342177280	; 0x50000000
 3f8:	05660304 	strbeq	r0, [r6, #-772]!	; 0xfffffcfc
 3fc:	0402002b 	streq	r0, [r2], #-43	; 0xffffffd5
 400:	11052e03 	tstne	r5, r3, lsl #28
 404:	03040200 	movweq	r0, #16896	; 0x4200
 408:	0019053c 	andseq	r0, r9, ip, lsr r5
 40c:	4b030402 	blmi	c141c <startup-0x1ff3ebe4>
 410:	02002805 	andeq	r2, r0, #327680	; 0x50000
 414:	052e0304 	streq	r0, [lr, #-772]!	; 0xfffffcfc
 418:	04020032 	streq	r0, [r2], #-50	; 0xffffffce
 41c:	2b056603 	blcs	159c30 <startup-0x1fea63d0>
 420:	03040200 	movweq	r0, #16896	; 0x4200
 424:	0011052e 	andseq	r0, r1, lr, lsr #10
 428:	3c030402 	cfstrscc	mvf0, [r3], {2}
 42c:	02000305 	andeq	r0, r0, #335544320	; 0x14000000
 430:	054b0304 	strbeq	r0, [fp, #-772]	; 0xfffffcfc
 434:	04020021 	streq	r0, [r2], #-33	; 0xffffffdf
 438:	02057e03 	andeq	r7, r5, #3, 28	; 0x30
 43c:	01040200 	mrseq	r0, R12_usr
 440:	5001053c 	andpl	r0, r1, ip, lsr r5
 444:	4b16055b 	blmi	5819b8 <startup-0x1fa7e648>
 448:	052e0605 	streq	r0, [lr, #-1541]!	; 0xfffff9fb
 44c:	02052f0a 	andeq	r2, r5, #10, 30	; 0x28
 450:	0019052e 	andseq	r0, r9, lr, lsr #10
 454:	22030402 	andcs	r0, r3, #33554432	; 0x2000000
 458:	02002805 	andeq	r2, r0, #327680	; 0x50000
 45c:	052e0304 	streq	r0, [lr, #-772]!	; 0xfffffcfc
 460:	04020032 	streq	r0, [r2], #-50	; 0xffffffce
 464:	2b056603 	blcs	159c78 <startup-0x1fea6388>
 468:	03040200 	movweq	r0, #16896	; 0x4200
 46c:	0011052e 	andseq	r0, r1, lr, lsr #10
 470:	3c030402 	cfstrscc	mvf0, [r3], {2}
 474:	02001905 	andeq	r1, r0, #81920	; 0x14000
 478:	054b0304 	strbeq	r0, [fp, #-772]	; 0xfffffcfc
 47c:	04020028 	streq	r0, [r2], #-40	; 0xffffffd8
 480:	32052e03 	andcc	r2, r5, #3, 28	; 0x30
 484:	03040200 	movweq	r0, #16896	; 0x4200
 488:	002b0566 	eoreq	r0, fp, r6, ror #10
 48c:	2e030402 	cdpcs	4, 0, cr0, cr3, cr2, {0}
 490:	02001105 	andeq	r1, r0, #1073741825	; 0x40000001
 494:	053c0304 	ldreq	r0, [ip, #-772]!	; 0xfffffcfc
 498:	04020003 	streq	r0, [r2], #-3
 49c:	21054b03 	tstcs	r5, r3, lsl #22
 4a0:	03040200 	movweq	r0, #16896	; 0x4200
 4a4:	0002057e 	andeq	r0, r2, lr, ror r5
 4a8:	3c010402 	cfstrscc	mvf0, [r1], {2}
 4ac:	5b500105 	blpl	14008c8 <startup-0x1ebff738>
 4b0:	3d670e05 	stclcc	14, cr0, [r7, #-20]!	; 0xffffffec
 4b4:	4e3d0105 	rsfmie	f0, f5, f5
 4b8:	054c0205 	strbeq	r0, [ip, #-517]	; 0xfffffdfb
 4bc:	19054b10 	stmdbne	r5, {r4, r8, r9, fp, lr}
 4c0:	2e10052e 	cfmul64cs	mvdx0, mvdx0, mvdx14
 4c4:	2e19053d 	mrccs	5, 0, r0, cr9, cr13, {1}
 4c8:	052e1005 	streq	r1, [lr, #-5]!
 4cc:	054b3d02 	strbeq	r3, [fp, #-3330]	; 0xfffff2fe
 4d0:	054e3d01 	strbeq	r3, [lr, #-3329]	; 0xfffff2ff
 4d4:	13054b02 	movwne	r4, #23298	; 0x5b02
 4d8:	5811054b 	ldmdapl	r1, {r0, r1, r3, r6, r8, sl}
 4dc:	052f1305 	streq	r1, [pc, #-773]!	; 1df <startup-0x1ffffe21>
 4e0:	02055811 	andeq	r5, r5, #1114112	; 0x110000
 4e4:	4b01052f 	blmi	419a8 <startup-0x1ffbe658>
 4e8:	c2033705 	andgt	r3, r3, #1310720	; 0x140000
 4ec:	0e054a00 	vmlaeq.f32	s8, s10, s0
 4f0:	3d3d3d68 	ldccc	13, cr3, [sp, #-416]!	; 0xfffffe60
 4f4:	3d0f053d 	cfstr32cc	mvfx0, [pc, #-244]	; 408 <startup-0x1ffffbf8>
 4f8:	053d0e05 	ldreq	r0, [sp, #-3589]!	; 0xfffff1fb
 4fc:	09053d13 	stmdbeq	r5, {r0, r1, r4, r8, sl, fp, ip, sp}
 500:	2101053d 	tstcs	r1, sp, lsr r5
 504:	05bf2b05 	ldreq	r2, [pc, #2821]!	; 1011 <startup-0x1fffefef>
 508:	3d3d5907 			; <UNDEFINED> instruction: 0x3d3d5907
 50c:	3d0c053d 	cfstr32cc	mvfx0, [ip, #-244]	; 0xffffff0c
 510:	052e0305 	streq	r0, [lr, #-773]!	; 0xfffffcfb
 514:	0505210e 	streq	r2, [r5, #-270]	; 0xfffffef2
 518:	2119052e 	tstcs	r9, lr, lsr #10
 51c:	052e2505 	streq	r2, [lr, #-1285]!	; 0xfffffafb
 520:	38057415 	stmdacc	r5, {r0, r2, r4, sl, ip, sp, lr}
 524:	2e44052e 	cdpcs	5, 4, cr0, cr4, cr14, {1}
 528:	05743405 	ldrbeq	r3, [r4, #-1029]!	; 0xfffffbfb
 52c:	17052e0a 	strne	r2, [r5, -sl, lsl #28]
 530:	01040200 	mrseq	r0, R12_usr
 534:	0023052f 	eoreq	r0, r3, pc, lsr #10
 538:	2e010402 	cdpcs	4, 0, cr0, cr1, cr2, {0}
 53c:	02001305 	andeq	r1, r0, #335544320	; 0x14000000
 540:	05740104 	ldrbeq	r0, [r4, #-260]!	; 0xfffffefc
 544:	04020036 	streq	r0, [r2], #-54	; 0xffffffca
 548:	42052e01 	andmi	r2, r5, #1, 28
 54c:	01040200 	mrseq	r0, R12_usr
 550:	0032052e 	eorseq	r0, r2, lr, lsr #10
 554:	74010402 	strvc	r0, [r1], #-1026	; 0xfffffbfe
 558:	02004805 	andeq	r4, r0, #327680	; 0x50000
 55c:	052d0104 	streq	r0, [sp, #-260]!	; 0xfffffefc
 560:	2f052f4e 	svccs	0x00052f4e
 564:	02040200 	andeq	r0, r4, #0, 4
 568:	001b052c 	andseq	r0, fp, ip, lsr #10
 56c:	3c010402 	cfstrscc	mvf0, [r1], {2}
 570:	02002105 	andeq	r2, r0, #1073741825	; 0x40000001
 574:	052e0104 	streq	r0, [lr, #-260]!	; 0xfffffefc
 578:	04020005 	streq	r0, [r2], #-5
 57c:	2c052001 	stccs	0, cr2, [r5], {1}
 580:	02040200 	andeq	r0, r4, #0, 4
 584:	0019053b 	andseq	r0, r9, fp, lsr r5
 588:	3c010402 	cfstrscc	mvf0, [r1], {2}
 58c:	02001e05 	andeq	r1, r0, #5, 28	; 0x50
 590:	052e0104 	streq	r0, [lr, #-260]!	; 0xfffffefc
 594:	04020003 	streq	r0, [r2], #-3
 598:	0a052001 	beq	1485a4 <startup-0x1feb7a5c>
 59c:	21010541 	tstcs	r1, r1, asr #10
 5a0:	5a09054d 	bpl	241adc <startup-0x1fdbe524>
 5a4:	052e1705 	streq	r1, [lr, #-1797]!	; 0xfffff8fb
 5a8:	24052e05 	strcs	r2, [r5], #-3589	; 0xfffff1fb
 5ac:	01040200 	mrseq	r0, R12_usr
 5b0:	0030052e 	eorseq	r0, r0, lr, lsr #10
 5b4:	2e010402 	cdpcs	4, 0, cr0, cr1, cr2, {0}
 5b8:	02001f05 	andeq	r1, r0, #5, 30
 5bc:	052e0104 	streq	r0, [lr, #-260]!	; 0xfffffefc
 5c0:	01052f0a 	tsteq	r5, sl, lsl #30
 5c4:	08054d30 	stmdaeq	r5, {r4, r5, r8, sl, fp, lr}
 5c8:	2e02054c 	cfsh32cs	mvfx0, mvfx2, #44
 5cc:	02000805 	andeq	r0, r0, #327680	; 0x50000
 5d0:	052f0104 	streq	r0, [pc, #-260]!	; 4d4 <startup-0x1ffffb2c>
 5d4:	04020013 	streq	r0, [r2], #-19	; 0xffffffed
 5d8:	08052d01 	stmdaeq	r5, {r0, r8, sl, fp, sp}
 5dc:	2d1e0530 	cfldr32cs	mvfx0, [lr, #-192]	; 0xffffff40
 5e0:	05300805 	ldreq	r0, [r0, #-2053]!	; 0xfffff7fb
 5e4:	0b052d13 	bleq	14ba38 <startup-0x1feb45c8>
 5e8:	2f0f0531 	svccs	0x000f0531
 5ec:	4e210105 	sufmis	f0, f1, f5
 5f0:	2f3e0a05 	svccs	0x003e0a05
 5f4:	05310c05 	ldreq	r0, [r1, #-3077]!	; 0xfffff3fb
 5f8:	0205820a 	andeq	r8, r5, #-1610612736	; 0xa0000000
 5fc:	2f2f5c2f 	svccs	0x002f5c2f
 600:	05300905 	ldreq	r0, [r0, #-2309]!	; 0xfffff6fb
 604:	08052e02 	stmdaeq	r5, {r1, r9, sl, fp, sp}
 608:	220e053d 	andcs	r0, lr, #255852544	; 0xf400000
 60c:	052e0305 	streq	r0, [lr, #-773]!	; 0xfffffcfb
 610:	03053d07 	movweq	r3, #23815	; 0x5d07
 614:	ca170567 	bgt	5c1bb8 <startup-0x1fa3e448>
 618:	052e0c05 	streq	r0, [lr, #-3077]!	; 0xfffff3fb
 61c:	17054a04 	strne	r4, [r5, -r4, lsl #20]
 620:	2e0c0522 	cfsh32cs	mvfx0, mvfx12, #18
 624:	05580405 	ldrbeq	r0, [r8, #-1029]	; 0xfffffbfb
 628:	0c052217 	sfmeq	f2, 4, [r5], {23}
 62c:	5804052e 	stmdapl	r4, {r1, r2, r3, r5, r8, sl}
 630:	05221705 	streq	r1, [r2, #-1797]!	; 0xfffff8fb
 634:	04052e0c 	streq	r2, [r5], #-3596	; 0xfffff1f4
 638:	2306054a 	movwcs	r0, #25930	; 0x654a
 63c:	05740505 	ldrbeq	r0, [r4, #-1285]!	; 0xfffffafb
 640:	0405220b 	streq	r2, [r5], #-523	; 0xfffffdf5
 644:	3d0a052e 	cfstr32cc	mvfx0, [sl, #-184]	; 0xffffff48
 648:	05586e03 	ldrbeq	r6, [r8, #-3587]	; 0xfffff1fd
 64c:	02055808 	andeq	r5, r5, #8, 16	; 0x80000
 650:	59201503 	stmdbpl	r0!, {r0, r1, r8, sl, ip}
 654:	6701052f 	strvs	r0, [r1, -pc, lsr #10]
 658:	01000f02 	tsteq	r0, r2, lsl #30
 65c:	00015f01 	andeq	r5, r1, r1, lsl #30
 660:	9a000300 	bls	1268 <startup-0x1fffed98>
 664:	02000000 	andeq	r0, r0, #0
 668:	0d0efb01 	vstreq	d15, [lr, #-4]
 66c:	01010100 	mrseq	r0, (UNDEF: 17)
 670:	00000001 	andeq	r0, r0, r1
 674:	01000001 	tsteq	r0, r1
 678:	552f3a43 	strpl	r3, [pc, #-2627]!	; fffffc3d <points+0xdfff5e8d>
 67c:	73726573 	cmnvc	r2, #482344960	; 0x1cc00000
 680:	696c452f 	stmdbvs	ip!, {r0, r1, r2, r3, r5, r8, sl, lr}^
 684:	4f2f7361 	svcmi	0x002f7361
 688:	7244656e 	subvc	r6, r4, #461373440	; 0x1b800000
 68c:	20657669 	rsbcs	r7, r5, r9, ror #12
 690:	6843202d 	stmdavs	r3, {r0, r2, r3, r5, sp}^
 694:	656d6c61 	strbvs	r6, [sp, #-3169]!	; 0xfffff39f
 698:	53207372 			; <UNDEFINED> instruction: 0x53207372
 69c:	65647574 	strbvs	r7, [r4, #-1396]!	; 0xfffffa8c
 6a0:	2f73746e 	svccs	0x0073746e
 6a4:	75636f44 	strbvc	r6, [r3, #-3908]!	; 0xfffff0bc
 6a8:	746e656d 	strbtvc	r6, [lr], #-1389	; 0xfffffa93
 6ac:	74532f73 	ldrbvc	r2, [r3], #-3955	; 0xfffff08d
 6b0:	65696475 	strbvs	r6, [r9, #-1141]!	; 0xfffffb8b
 6b4:	72502f73 	subsvc	r2, r0, #460	; 0x1cc
 6b8:	6172676f 	cmnvs	r2, pc, ror #14
 6bc:	676e696d 	strbvs	r6, [lr, -sp, ror #18]!
 6c0:	706f6d2f 	rsbvc	r6, pc, pc, lsr #26
 6c4:	6f57632f 	svcvs	0x0057632f
 6c8:	70536b72 	subsvc	r6, r3, r2, ror fp
 6cc:	2f656361 	svccs	0x00656361
 6d0:	726f5763 	rsbvc	r5, pc, #25952256	; 0x18c0000
 6d4:	6170536b 	cmnvs	r0, fp, ror #6
 6d8:	732f6563 			; <UNDEFINED> instruction: 0x732f6563
 6dc:	656b616e 	strbvs	r6, [fp, #-366]!	; 0xfffffe92
 6e0:	656b0000 	strbvs	r0, [fp, #-0]!
 6e4:	64617079 	strbtvs	r7, [r1], #-121	; 0xffffff87
 6e8:	0100632e 	tsteq	r0, lr, lsr #6
 6ec:	65640000 	strbvs	r0, [r4, #-0]!
 6f0:	72616c63 	rsbvc	r6, r1, #25344	; 0x6300
 6f4:	6f697461 	svcvs	0x00697461
 6f8:	682e736e 	stmdavs	lr!, {r1, r2, r3, r5, r6, r8, r9, ip, sp, lr}
 6fc:	00000100 	andeq	r0, r0, r0, lsl #2
 700:	00010500 	andeq	r0, r1, r0, lsl #10
 704:	08700205 	ldmdaeq	r0!, {r0, r2, r9}^
 708:	05182000 	ldreq	r2, [r8, #-0]
 70c:	0b054b02 	bleq	15331c <startup-0x1feacce4>
 710:	19052f08 	stmdbne	r5, {r3, r8, r9, sl, fp, sp}
 714:	2e030520 	cfsh32cs	mvfx0, mvfx3, #16
 718:	05210b05 	streq	r0, [r1, #-2821]!	; 0xfffff4fb
 71c:	03052019 	movweq	r2, #20505	; 0x5019
 720:	210b052e 	tstcs	fp, lr, lsr #10
 724:	05201905 	streq	r1, [r0, #-2309]!	; 0xfffff6fb
 728:	0b052e03 	bleq	14bf3c <startup-0x1feb40c4>
 72c:	20190521 	andscs	r0, r9, r1, lsr #10
 730:	052e0305 	streq	r0, [lr, #-773]!	; 0xfffffcfb
 734:	1a05220c 	bne	148f6c <startup-0x1feb7094>
 738:	30010520 	andcc	r0, r1, r0, lsr #10
 73c:	3e060585 	cfsh32cc	mvfx0, mvfx6, #-59
 740:	05200405 	streq	r0, [r0, #-1029]!	; 0xfffffbfb
 744:	04053d07 	streq	r3, [r5], #-3335	; 0xfffff2f9
 748:	0013054a 	andseq	r0, r3, sl, asr #10
 74c:	20010402 	andcs	r0, r1, r2, lsl #8
 750:	052f0705 	streq	r0, [pc, #-1797]!	; 53 <startup-0x1fffffad>
 754:	13054a04 	movwne	r4, #23044	; 0x5a04
 758:	01040200 	mrseq	r0, R12_usr
 75c:	2f070520 	svccs	0x00070520
 760:	054a0405 	strbeq	r0, [sl, #-1029]	; 0xfffffbfb
 764:	04020013 	streq	r0, [r2], #-19	; 0xffffffed
 768:	07052001 	streq	r2, [r5, -r1]
 76c:	4a04052f 	bmi	101c30 <startup-0x1fefe3d0>
 770:	02001305 	andeq	r1, r0, #335544320	; 0x14000000
 774:	05200104 	streq	r0, [r0, #-260]!	; 0xfffffefc
 778:	01052f09 	tsteq	r5, r9, lsl #30
 77c:	10056c21 	andne	r6, r5, r1, lsr #24
 780:	690a053d 	stmdbvs	sl, {r0, r2, r3, r4, r5, r8, sl}
 784:	052e0205 	streq	r0, [lr, #-517]!	; 0xfffffdfb
 788:	0a052103 	beq	148b9c <startup-0x1feb7464>
 78c:	4a05054b 	bmi	141cc0 <startup-0x1febe340>
 790:	053d0405 	ldreq	r0, [sp, #-1029]!	; 0xfffffbfb
 794:	10053d15 	andne	r3, r5, r5, lsl sp
 798:	201d052e 	andscs	r0, sp, lr, lsr #10
 79c:	052e1805 	streq	r1, [lr, #-2053]!	; 0xfffff7fb
 7a0:	1c05200e 	stcne	0, cr2, [r5], {14}
 7a4:	02040200 	andeq	r0, r4, #0, 4
 7a8:	00020538 	andeq	r0, r2, r8, lsr r5
 7ac:	3c010402 	cfstrscc	mvf0, [r1], {2}
 7b0:	3d080543 	cfstr32cc	mvfx0, [r8, #-268]	; 0xfffffef4
 7b4:	02000105 	andeq	r0, r0, #1073741825	; 0x40000001
 7b8:	02210104 	eoreq	r0, r1, #4, 2
 7bc:	01010007 	tsteq	r1, r7
 7c0:	000000f3 	strdeq	r0, [r0], -r3
 7c4:	00980003 	addseq	r0, r8, r3
 7c8:	01020000 	mrseq	r0, (UNDEF: 2)
 7cc:	000d0efb 	strdeq	r0, [sp], -fp
 7d0:	01010101 	tsteq	r1, r1, lsl #2
 7d4:	01000000 	mrseq	r0, (UNDEF: 0)
 7d8:	43010000 	movwmi	r0, #4096	; 0x1000
 7dc:	73552f3a 	cmpvc	r5, #58, 30	; 0xe8
 7e0:	2f737265 	svccs	0x00737265
 7e4:	61696c45 	cmnvs	r9, r5, asr #24
 7e8:	6e4f2f73 	mcrvs	15, 2, r2, cr15, cr3, {3}
 7ec:	69724465 	ldmdbvs	r2!, {r0, r2, r5, r6, sl, lr}^
 7f0:	2d206576 	cfstr32cs	mvfx6, [r0, #-472]!	; 0xfffffe28
 7f4:	61684320 	cmnvs	r8, r0, lsr #6
 7f8:	72656d6c 	rsbvc	r6, r5, #108, 26	; 0x1b00
 7fc:	74532073 	ldrbvc	r2, [r3], #-115	; 0xffffff8d
 800:	6e656475 	mcrvs	4, 3, r6, cr5, cr5, {3}
 804:	442f7374 	strtmi	r7, [pc], #-884	; 80c <startup-0x1ffff7f4>
 808:	6d75636f 	ldclvs	3, cr6, [r5, #-444]!	; 0xfffffe44
 80c:	73746e65 	cmnvc	r4, #1616	; 0x650
 810:	7574532f 	ldrbvc	r5, [r4, #-815]!	; 0xfffffcd1
 814:	73656964 	cmnvc	r5, #100, 18	; 0x190000
 818:	6f72502f 	svcvs	0x0072502f
 81c:	6d617267 	sfmvs	f7, 2, [r1, #-412]!	; 0xfffffe64
 820:	2f676e69 	svccs	0x00676e69
 824:	2f706f6d 	svccs	0x00706f6d
 828:	726f5763 	rsbvc	r5, pc, #25952256	; 0x18c0000
 82c:	6170536b 	cmnvs	r0, fp, ror #6
 830:	632f6563 			; <UNDEFINED> instruction: 0x632f6563
 834:	6b726f57 	blvs	1c9c598 <startup-0x1e363a68>
 838:	63617053 	cmnvs	r1, #83	; 0x53
 83c:	6e732f65 	cdpvs	15, 7, cr2, cr3, cr5, {3}
 840:	00656b61 	rsbeq	r6, r5, r1, ror #22
 844:	696e6900 	stmdbvs	lr!, {r8, fp, sp, lr}^
 848:	00632e74 	rsbeq	r2, r3, r4, ror lr
 84c:	64000001 	strvs	r0, [r0], #-1
 850:	616c6365 	cmnvs	ip, r5, ror #6
 854:	69746172 	ldmdbvs	r4!, {r1, r4, r5, r6, r8, sp, lr}^
 858:	2e736e6f 	cdpcs	14, 7, cr6, cr3, cr15, {3}
 85c:	00010068 	andeq	r0, r1, r8, rrx
 860:	02050000 	andeq	r0, r5, #0
 864:	90020500 	andls	r0, r2, r0, lsl #10
 868:	17200009 	strne	r0, [r0, -r9]!
 86c:	200f052f 	andcs	r0, pc, pc, lsr #10
 870:	053d0205 	ldreq	r0, [sp, #-517]!	; 0xfffffdfb
 874:	02052010 	andeq	r2, r5, #16
 878:	200f052f 	andcs	r0, pc, pc, lsr #10
 87c:	053d0205 	ldreq	r0, [sp, #-517]!	; 0xfffffdfb
 880:	01052011 	tsteq	r5, r1, lsl r0
 884:	02055b3d 	andeq	r5, r5, #62464	; 0xf400
 888:	200f052f 	andcs	r0, pc, pc, lsr #10
 88c:	052f0205 	streq	r0, [pc, #-517]!	; 68f <startup-0x1ffff971>
 890:	0205200f 	andeq	r2, r5, #15
 894:	2010052f 	andscs	r0, r0, pc, lsr #10
 898:	932f0105 			; <UNDEFINED> instruction: 0x932f0105
 89c:	052f0c05 	streq	r0, [pc, #-3077]!	; fffffc9f <points+0xdfff5eef>
 8a0:	0c058302 	stceq	3, cr8, [r5], {2}
 8a4:	01053d20 	tsteq	r5, r0, lsr #26
 8a8:	02058584 	andeq	r8, r5, #132, 10	; 0x21000000
 8ac:	052f2f2f 	streq	r2, [pc, #-3887]!	; fffff985 <points+0xdfff5bd5>
 8b0:	03022f01 	movweq	r2, #12033	; 0x2f01
 8b4:	Address 0x000008b4 is out of bounds.


Disassembly of section .debug_str:

00000000 <.debug_str>:
   0:	552f3a43 	strpl	r3, [pc, #-2627]!	; fffff5c5 <points+0xdfff5815>
   4:	73726573 	cmnvc	r2, #482344960	; 0x1cc00000
   8:	696c452f 	stmdbvs	ip!, {r0, r1, r2, r3, r5, r8, sl, lr}^
   c:	4f2f7361 	svcmi	0x002f7361
  10:	7244656e 	subvc	r6, r4, #461373440	; 0x1b800000
  14:	20657669 	rsbcs	r7, r5, r9, ror #12
  18:	6843202d 	stmdavs	r3, {r0, r2, r3, r5, sp}^
  1c:	656d6c61 	strbvs	r6, [sp, #-3169]!	; 0xfffff39f
  20:	53207372 			; <UNDEFINED> instruction: 0x53207372
  24:	65647574 	strbvs	r7, [r4, #-1396]!	; 0xfffffa8c
  28:	2f73746e 	svccs	0x0073746e
  2c:	75636f44 	strbvc	r6, [r3, #-3908]!	; 0xfffff0bc
  30:	746e656d 	strbtvc	r6, [lr], #-1389	; 0xfffffa93
  34:	74532f73 	ldrbvc	r2, [r3], #-3955	; 0xfffff08d
  38:	65696475 	strbvs	r6, [r9, #-1141]!	; 0xfffffb8b
  3c:	72502f73 	subsvc	r2, r0, #460	; 0x1cc
  40:	6172676f 	cmnvs	r2, pc, ror #14
  44:	676e696d 	strbvs	r6, [lr, -sp, ror #18]!
  48:	706f6d2f 	rsbvc	r6, pc, pc, lsr #26
  4c:	6f57632f 	svcvs	0x0057632f
  50:	70536b72 	subsvc	r6, r3, r2, ror fp
  54:	2f656361 	svccs	0x00656361
  58:	726f5763 	rsbvc	r5, pc, #25952256	; 0x18c0000
  5c:	6170536b 	cmnvs	r0, fp, ror #6
  60:	732f6563 			; <UNDEFINED> instruction: 0x732f6563
  64:	656b616e 	strbvs	r6, [fp, #-366]!	; 0xfffffe92
  68:	756f632f 	strbvc	r6, [pc, #-815]!	; fffffd41 <points+0xdfff5f91>
  6c:	6e69746e 	cdpvs	4, 6, cr7, cr9, cr14, {3}
  70:	69635f67 	stmdbvs	r3!, {r0, r1, r2, r5, r6, r8, r9, sl, fp, ip, lr}^
  74:	69756372 	ldmdbvs	r5!, {r1, r4, r5, r6, r8, r9, sp, lr}^
  78:	632e7374 			; <UNDEFINED> instruction: 0x632e7374
  7c:	6e617200 	cdpvs	2, 6, cr7, cr1, cr0, {0}
  80:	006d6f64 	rsbeq	r6, sp, r4, ror #30
  84:	69736e75 	ldmdbvs	r3!, {r0, r2, r4, r5, r6, r9, sl, fp, sp, lr}^
  88:	64656e67 	strbtvs	r6, [r5], #-3687	; 0xfffff199
  8c:	61686320 	cmnvs	r8, r0, lsr #6
  90:	68730072 	ldmdavs	r3!, {r1, r4, r5, r6}^
  94:	2074726f 	rsbscs	r7, r4, pc, ror #4
  98:	69736e75 	ldmdbvs	r3!, {r0, r2, r4, r5, r6, r9, sl, fp, sp, lr}^
  9c:	64656e67 	strbtvs	r6, [r5], #-3687	; 0xfffff199
  a0:	746e6920 	strbtvc	r6, [lr], #-2336	; 0xfffff6e0
  a4:	6e617200 	cdpvs	2, 6, cr7, cr1, cr0, {0}
  a8:	5f6d6f64 	svcpl	0x006d6f64
  ac:	626d756e 	rsbvs	r7, sp, #461373440	; 0x1b800000
  b0:	43007265 	movwmi	r7, #613	; 0x265
  b4:	73555c3a 	cmpvc	r5, #14848	; 0x3a00
  b8:	5c737265 	lfmpl	f7, 2, [r3], #-404	; 0xfffffe6c
  bc:	61696c45 	cmnvs	r9, r5, asr #24
  c0:	6e4f5c73 	mcrvs	12, 2, r5, cr15, cr3, {3}
  c4:	69724465 	ldmdbvs	r2!, {r0, r2, r5, r6, sl, lr}^
  c8:	2d206576 	cfstr32cs	mvfx6, [r0, #-472]!	; 0xfffffe28
  cc:	61684320 	cmnvs	r8, r0, lsr #6
  d0:	72656d6c 	rsbvc	r6, r5, #108, 26	; 0x1b00
  d4:	74532073 	ldrbvc	r2, [r3], #-115	; 0xffffff8d
  d8:	6e656475 	mcrvs	4, 3, r6, cr5, cr5, {3}
  dc:	445c7374 	ldrbmi	r7, [ip], #-884	; 0xfffffc8c
  e0:	6d75636f 	ldclvs	3, cr6, [r5, #-444]!	; 0xfffffe44
  e4:	73746e65 	cmnvc	r4, #1616	; 0x650
  e8:	7574535c 	ldrbvc	r5, [r4, #-860]!	; 0xfffffca4
  ec:	73656964 	cmnvc	r5, #100, 18	; 0x190000
  f0:	6f72505c 	svcvs	0x0072505c
  f4:	6d617267 	sfmvs	f7, 2, [r1, #-412]!	; 0xfffffe64
  f8:	5c676e69 	stclpl	14, cr6, [r7], #-420	; 0xfffffe5c
  fc:	5c706f6d 	ldclpl	15, cr6, [r0], #-436	; 0xfffffe4c
 100:	726f5763 	rsbvc	r5, pc, #25952256	; 0x18c0000
 104:	6170536b 	cmnvs	r0, fp, ror #6
 108:	635c6563 	cmpvs	ip, #415236096	; 0x18c00000
 10c:	6b726f57 	blvs	1c9be70 <startup-0x1e364190>
 110:	63617053 	cmnvs	r1, #83	; 0x53
 114:	6e735c65 	cdpvs	12, 7, cr5, cr3, cr5, {3}
 118:	00656b61 	rsbeq	r6, r5, r1, ror #22
 11c:	616c6564 	cmnvs	ip, r4, ror #10
 120:	35325f79 	ldrcc	r5, [r2, #-3961]!	; 0xfffff087
 124:	00736e30 	rsbseq	r6, r3, r0, lsr lr
 128:	20554e47 	subscs	r4, r5, r7, asr #28
 12c:	20393943 	eorscs	r3, r9, r3, asr #18
 130:	2e322e39 	mrccs	14, 1, r2, cr2, cr9, {1}
 134:	30322031 	eorscc	r2, r2, r1, lsr r0
 138:	30313931 	eorscc	r3, r1, r1, lsr r9
 13c:	28203532 	stmdacs	r0!, {r1, r4, r5, r8, sl, ip, sp}
 140:	656c6572 	strbvs	r6, [ip, #-1394]!	; 0xfffffa8e
 144:	29657361 	stmdbcs	r5!, {r0, r5, r6, r8, r9, ip, sp, lr}^
 148:	52415b20 	subpl	r5, r1, #32, 22	; 0x8000
 14c:	72612f4d 	rsbvc	r2, r1, #308	; 0x134
 150:	2d392d6d 	ldccs	13, cr2, [r9, #-436]!	; 0xfffffe4c
 154:	6e617262 	cdpvs	2, 6, cr7, cr1, cr2, {3}
 158:	72206863 	eorvc	r6, r0, #6488064	; 0x630000
 15c:	73697665 	cmnvc	r9, #105906176	; 0x6500000
 160:	206e6f69 	rsbcs	r6, lr, r9, ror #30
 164:	35373732 	ldrcc	r3, [r7, #-1842]!	; 0xfffff8ce
 168:	205d3939 	subscs	r3, sp, r9, lsr r9
 16c:	68746d2d 	ldmdavs	r4!, {r0, r2, r3, r5, r8, sl, fp, sp, lr}^
 170:	20626d75 	rsbcs	r6, r2, r5, ror sp
 174:	6c666d2d 	stclvs	13, cr6, [r6], #-180	; 0xffffff4c
 178:	2d74616f 	ldfcse	f6, [r4, #-444]!	; 0xfffffe44
 17c:	3d696261 	sfmcc	f6, 2, [r9, #-388]!	; 0xfffffe7c
 180:	74666f73 	strbtvc	r6, [r6], #-3955	; 0xfffff08d
 184:	616d2d20 	cmnvs	sp, r0, lsr #26
 188:	3d686372 	stclcc	3, cr6, [r8, #-456]!	; 0xfffffe38
 18c:	766d7261 	strbtvc	r7, [sp], -r1, ror #4
 190:	206d2d36 	rsbcs	r2, sp, r6, lsr sp
 194:	2d20672d 	stccs	7, cr6, [r0, #-180]!	; 0xffffff4c
 198:	2d20304f 	stccs	0, cr3, [r0, #-316]!	; 0xfffffec4
 19c:	3d647473 	cfstrdcc	mvd7, [r4, #-460]!	; 0xfffffe34
 1a0:	00393963 	eorseq	r3, r9, r3, ror #18
 1a4:	616c6564 	cmnvs	ip, r4, ror #10
 1a8:	696d5f79 	stmdbvs	sp!, {r0, r3, r4, r5, r6, r8, r9, sl, fp, ip, lr}^
 1ac:	00696c6c 	rsbeq	r6, r9, ip, ror #24
 1b0:	726f6873 	rsbvc	r6, pc, #7536640	; 0x730000
 1b4:	6e692074 	mcrvs	0, 3, r2, cr9, cr4, {3}
 1b8:	65640074 	strbvs	r0, [r4, #-116]!	; 0xffffff8c
 1bc:	5f79616c 	svcpl	0x0079616c
 1c0:	7263696d 	rsbvc	r6, r3, #1785856	; 0x1b4000
 1c4:	636c006f 	cmnvs	ip, #111	; 0x6f
 1c8:	6300726b 	movwvs	r7, #619	; 0x26b
 1cc:	6d756c6f 	ldclvs	12, cr6, [r5, #-444]!	; 0xfffffe44
 1d0:	7277006e 	rsbsvc	r0, r7, #110	; 0x6e
 1d4:	5f657469 	svcpl	0x00657469
 1d8:	69637361 	stmdbvs	r3!, {r0, r5, r6, r8, r9, ip, sp, lr}^
 1dc:	73620069 	cmnvc	r2, #105	; 0x69
 1e0:	61007272 	tstvs	r0, r2, ror r2
 1e4:	69696373 	stmdbvs	r9!, {r0, r1, r4, r5, r6, r8, r9, sp, lr}^
 1e8:	696e695f 	stmdbvs	lr!, {r0, r1, r2, r3, r4, r6, r8, fp, sp, lr}^
 1ec:	746f0074 	strbtvc	r0, [pc], #-116	; 1f4 <startup-0x1ffffe0c>
 1f0:	72657079 	rsbvc	r7, r5, #121	; 0x79
 1f4:	73655200 	cmnvc	r5, #0, 4
 1f8:	65767265 	ldrbvs	r7, [r6, #-613]!	; 0xfffffd9b
 1fc:	6f003364 	svcvs	0x00003364
 200:	69487264 	stmdbvs	r8, {r2, r5, r6, r9, ip, sp, lr}^
 204:	43006867 	movwmi	r6, #2151	; 0x867
 208:	73552f3a 	cmpvc	r5, #58, 30	; 0xe8
 20c:	2f737265 	svccs	0x00737265
 210:	61696c45 	cmnvs	r9, r5, asr #24
 214:	6e4f2f73 	mcrvs	15, 2, r2, cr15, cr3, {3}
 218:	69724465 	ldmdbvs	r2!, {r0, r2, r5, r6, sl, lr}^
 21c:	2d206576 	cfstr32cs	mvfx6, [r0, #-472]!	; 0xfffffe28
 220:	61684320 	cmnvs	r8, r0, lsr #6
 224:	72656d6c 	rsbvc	r6, r5, #108, 26	; 0x1b00
 228:	74532073 	ldrbvc	r2, [r3], #-115	; 0xffffff8d
 22c:	6e656475 	mcrvs	4, 3, r6, cr5, cr5, {3}
 230:	442f7374 	strtmi	r7, [pc], #-884	; 238 <startup-0x1ffffdc8>
 234:	6d75636f 	ldclvs	3, cr6, [r5, #-444]!	; 0xfffffe44
 238:	73746e65 	cmnvc	r4, #1616	; 0x650
 23c:	7574532f 	ldrbvc	r5, [r4, #-815]!	; 0xfffffcd1
 240:	73656964 	cmnvc	r5, #100, 18	; 0x190000
 244:	6f72502f 	svcvs	0x0072502f
 248:	6d617267 	sfmvs	f7, 2, [r1, #-412]!	; 0xfffffe64
 24c:	2f676e69 	svccs	0x00676e69
 250:	2f706f6d 	svccs	0x00706f6d
 254:	726f5763 	rsbvc	r5, pc, #25952256	; 0x18c0000
 258:	6170536b 	cmnvs	r0, fp, ror #6
 25c:	632f6563 			; <UNDEFINED> instruction: 0x632f6563
 260:	6b726f57 	blvs	1c9bfc4 <startup-0x1e36403c>
 264:	63617053 	cmnvs	r1, #83	; 0x53
 268:	6e732f65 	cdpvs	15, 7, cr2, cr3, cr5, {3}
 26c:	2f656b61 	svccs	0x00656b61
 270:	69637361 	stmdbvs	r3!, {r0, r5, r6, r8, r9, ip, sp, lr}^
 274:	69645f69 	stmdbvs	r4!, {r0, r3, r5, r6, r8, r9, sl, fp, ip, lr}^
 278:	616c7073 	smcvs	50947	; 0xc703
 27c:	00632e79 	rsbeq	r2, r3, r9, ror lr
 280:	69637361 	stmdbvs	r3!, {r0, r5, r6, r8, r9, ip, sp, lr}^
 284:	65725f69 	ldrbvs	r5, [r2, #-3945]!	; 0xfffff097
 288:	735f6461 	cmpvc	pc, #1627389952	; 0x61000000
 28c:	75746174 	ldrbvc	r6, [r4, #-372]!	; 0xfffffe8c
 290:	696c0073 	stmdbvs	ip!, {r0, r1, r4, r5, r6}^
 294:	0031656e 	eorseq	r6, r1, lr, ror #10
 298:	49504750 	ldmdbmi	r0, {r4, r6, r8, r9, sl, lr}^
 29c:	6661004f 	strbtvs	r0, [r1], -pc, asr #32
 2a0:	61006872 	tstvs	r0, r2, ror r8
 2a4:	006c7266 	rsbeq	r7, ip, r6, ror #4
 2a8:	656e696c 	strbvs	r6, [lr, #-2412]!	; 0xfffff694
 2ac:	73610032 	cmnvc	r1, #50	; 0x32
 2b0:	5f696963 	svcpl	0x00696963
 2b4:	64616572 	strbtvs	r6, [r1], #-1394	; 0xfffffa8e
 2b8:	6e6f635f 	mcrvs	3, 3, r6, cr15, cr15, {2}
 2bc:	6c6f7274 	sfmvs	f7, 2, [pc], #-464	; f4 <startup-0x1fffff0c>
 2c0:	0072656c 	rsbseq	r6, r2, ip, ror #10
 2c4:	69637361 	stmdbvs	r3!, {r0, r5, r6, r8, r9, ip, sp, lr}^
 2c8:	74635f69 	strbtvc	r5, [r3], #-3945	; 0xfffff097
 2cc:	625f6c72 	subsvs	r6, pc, #29184	; 0x7200
 2d0:	735f7469 	cmpvc	pc, #1761607680	; 0x69000000
 2d4:	61007465 	tstvs	r0, r5, ror #8
 2d8:	69696373 	stmdbvs	r9!, {r0, r1, r4, r5, r6, r8, r9, sp, lr}^
 2dc:	6972775f 	ldmdbvs	r2!, {r0, r1, r2, r3, r4, r6, r8, r9, sl, ip, sp, lr}^
 2e0:	635f6574 	cmpvs	pc, #116, 10	; 0x1d000000
 2e4:	7000646d 	andvc	r6, r0, sp, ror #8
 2e8:	72647075 	rsbvc	r7, r4, #117	; 0x75
 2ec:	73655200 	cmnvc	r5, #0, 4
 2f0:	65767265 	ldrbvs	r7, [r6, #-613]!	; 0xfffffd9b
 2f4:	52003064 	andpl	r3, r0, #100	; 0x64
 2f8:	72657365 	rsbvc	r7, r5, #-1811939327	; 0x94000001
 2fc:	31646576 	smccc	18006	; 0x4656
 300:	73655200 	cmnvc	r5, #0, 4
 304:	65767265 	ldrbvs	r7, [r6, #-613]!	; 0xfffffd9b
 308:	6f003264 	svcvs	0x00003264
 30c:	6f4c7264 	svcvs	0x004c7264
 310:	73610077 	cmnvc	r1, #119	; 0x77
 314:	5f696963 	svcpl	0x00696963
 318:	74697277 	strbtvc	r7, [r9], #-631	; 0xfffffd89
 31c:	61645f65 	cmnvs	r4, r5, ror #30
 320:	61006174 	tstvs	r0, r4, ror r1
 324:	69696373 	stmdbvs	r9!, {r0, r1, r4, r5, r6, r8, r9, sp, lr}^
 328:	6d6f635f 	stclvs	3, cr6, [pc, #-380]!	; 1b4 <startup-0x1ffffe4c>
 32c:	646e616d 	strbtvs	r6, [lr], #-365	; 0xfffffe93
 330:	72646900 	rsbvc	r6, r4, #0, 18
 334:	68676948 	stmdavs	r7!, {r3, r6, r8, fp, sp, lr}^
 338:	70736f00 	rsbsvc	r6, r3, r0, lsl #30
 33c:	72646565 	rsbvc	r6, r4, #423624704	; 0x19400000
 340:	63736100 	cmnvs	r3, #0, 2
 344:	675f6969 	ldrbvs	r6, [pc, -r9, ror #18]
 348:	7978746f 	ldmdbvc	r8!, {r0, r1, r2, r3, r5, r6, sl, ip, sp, lr}^
 34c:	72646900 	rsbvc	r6, r4, #0, 18
 350:	00776f4c 	rsbseq	r6, r7, ip, asr #30
 354:	69637361 	stmdbvs	r3!, {r0, r5, r6, r8, r9, ip, sp, lr}^
 358:	74635f69 	strbtvc	r5, [r3], #-3945	; 0xfffff097
 35c:	625f6c72 	subsvs	r6, pc, #29184	; 0x7200
 360:	635f7469 	cmpvs	pc, #1761607680	; 0x69000000
 364:	7261656c 	rsbvc	r6, r1, #108, 10	; 0x1b000000
 368:	63736100 	cmnvs	r3, #0, 2
 36c:	725f6969 	subsvc	r6, pc, #1720320	; 0x1a4000
 370:	5f646165 	svcpl	0x00646165
 374:	61746164 	cmnvs	r4, r4, ror #2
 378:	646f6d00 	strbtvs	r6, [pc], #-3328	; 380 <startup-0x1ffffc80>
 37c:	61007265 	tstvs	r0, r5, ror #4
 380:	69696373 	stmdbvs	r9!, {r0, r1, r4, r5, r6, r8, r9, sp, lr}^
 384:	6972775f 	ldmdbvs	r2!, {r0, r1, r2, r3, r4, r6, r8, r9, sl, ip, sp, lr}^
 388:	635f6574 	cmpvs	pc, #116, 10	; 0x1d000000
 38c:	72746e6f 	rsbsvc	r6, r4, #1776	; 0x6f0
 390:	656c6c6f 	strbvs	r6, [ip, #-3183]!	; 0xfffff391
 394:	73610072 	cmnvc	r1, #114	; 0x72
 398:	5f696963 	svcpl	0x00696963
 39c:	74697277 	strbtvc	r7, [r9], #-631	; 0xfffffd89
 3a0:	68635f65 	stmdavs	r3!, {r0, r2, r5, r6, r8, r9, sl, fp, ip, lr}^
 3a4:	50007261 	andpl	r7, r0, r1, ror #4
 3a8:	4d4f4547 	cfstr64mi	mvdx4, [pc, #-284]	; 294 <startup-0x1ffffd6c>
 3ac:	59525445 	ldmdbpl	r2, {r0, r2, r6, sl, ip, lr}^
 3b0:	766f6d00 	strbtvc	r6, [pc], -r0, lsl #26
 3b4:	70615f65 	rsbvc	r5, r1, r5, ror #30
 3b8:	00656c70 	rsbeq	r6, r5, r0, ror ip
 3bc:	555c3a43 	ldrbpl	r3, [ip, #-2627]	; 0xfffff5bd
 3c0:	73726573 	cmnvc	r2, #482344960	; 0x1cc00000
 3c4:	6e65685c 	mcrvs	8, 3, r6, cr5, cr12, {2}
 3c8:	4f5c7972 	svcmi	0x005c7972
 3cc:	7244656e 	subvc	r6, r4, #461373440	; 0x1b800000
 3d0:	5c657669 	stclpl	6, cr7, [r5], #-420	; 0xfffffe5c
 3d4:	69726b53 	ldmdbvs	r2!, {r0, r1, r4, r6, r8, r9, fp, sp, lr}^
 3d8:	726f6276 	rsbvc	r6, pc, #1610612743	; 0x60000007
 3dc:	54565c64 	ldrbpl	r5, [r6], #-3172	; 0xfffff39c
 3e0:	4d5c3132 	ldfmie	f3, [ip, #-200]	; 0xffffff38
 3e4:	4d5c504f 	ldclmi	0, cr5, [ip, #-316]	; 0xfffffec4
 3e8:	4d5c504f 	ldclmi	0, cr5, [ip, #-316]	; 0xfffffec4
 3ec:	735c504f 	cmpvc	ip, #79	; 0x4f
 3f0:	656b616e 	strbvs	r6, [fp, #-366]!	; 0xfffffe92
 3f4:	61726400 	cmnvs	r2, r0, lsl #8
 3f8:	626f5f77 	rsbvs	r5, pc, #476	; 0x1dc
 3fc:	7463656a 	strbtvc	r6, [r3], #-1386	; 0xfffffa96
 400:	766f6d00 	strbtvc	r6, [pc], -r0, lsl #26
 404:	69640065 	stmdbvs	r4!, {r0, r2, r5, r6}^
 408:	64007872 	strvs	r7, [r0], #-2162	; 0xfffff78e
 40c:	00797269 	rsbseq	r7, r9, r9, ror #4
 410:	65766f6d 	ldrbvs	r6, [r6, #-3949]!	; 0xfffff093
 414:	616e735f 	cmnvs	lr, pc, asr r3
 418:	5000656b 	andpl	r6, r0, fp, ror #10
 41c:	544e494f 	strbpl	r4, [lr], #-2383	; 0xfffff6b1
 420:	70706100 	rsbsvc	r6, r0, r0, lsl #2
 424:	004f656c 	subeq	r6, pc, ip, ror #10
 428:	5f746573 	svcpl	0x00746573
 42c:	65657073 	strbvs	r7, [r5, #-115]!	; 0xffffff8d
 430:	6f700064 	svcvs	0x00700064
 434:	70007873 	andvc	r7, r0, r3, ror r8
 438:	0079736f 	rsbseq	r7, r9, pc, ror #6
 43c:	65786970 	ldrbvs	r6, [r8, #-2416]!	; 0xfffff690
 440:	766f5f6c 	strbtvc	r5, [pc], -ip, ror #30
 444:	616c7265 	cmnvs	ip, r5, ror #4
 448:	666f0070 			; <UNDEFINED> instruction: 0x666f0070
 44c:	74657366 	strbtvc	r7, [r5], #-870	; 0xfffffc9a
 450:	6f007831 	svcvs	0x00007831
 454:	65736666 	ldrbvs	r6, [r3, #-1638]!	; 0xfffff99a
 458:	00793174 	rsbseq	r3, r9, r4, ror r1
 45c:	706d756e 	rsbvc	r7, sp, lr, ror #10
 460:	6c657869 	stclvs	8, cr7, [r5], #-420	; 0xfffffe5c
 464:	666f0073 			; <UNDEFINED> instruction: 0x666f0073
 468:	74657366 	strbtvc	r7, [r5], #-870	; 0xfffffc9a
 46c:	63007832 	movwvs	r7, #2098	; 0x832
 470:	74616572 	strbtvc	r6, [r1], #-1394	; 0xfffffa8e
 474:	61745f65 	cmnvs	r4, r5, ror #30
 478:	6d006c69 	stcvs	12, cr6, [r0, #-420]	; 0xfffffe5c
 47c:	006e6961 	rsbeq	r6, lr, r1, ror #18
 480:	70617267 	rsbvc	r7, r1, r7, ror #4
 484:	5f636968 	svcpl	0x00636968
 488:	65786970 	ldrbvs	r6, [r8, #-2416]!	; 0xfffff690
 48c:	65735f6c 	ldrbvs	r5, [r3, #-3948]!	; 0xfffff094
 490:	61740074 	cmnvs	r4, r4, ror r0
 494:	675f6c69 	ldrbvs	r6, [pc, -r9, ror #24]
 498:	656d6f65 	strbvs	r6, [sp, #-3941]!	; 0xfffff09b
 49c:	00797274 	rsbseq	r7, r9, r4, ror r2
 4a0:	74696e69 	strbtvc	r6, [r9], #-3689	; 0xfffff197
 4a4:	7070615f 	rsbsvc	r6, r0, pc, asr r1
 4a8:	7a697300 	bvc	1a5d0b0 <startup-0x1e5a2f50>
 4ac:	73007865 	movwvc	r7, #2149	; 0x865
 4b0:	79657a69 	stmdbvc	r5!, {r0, r3, r5, r6, r9, fp, ip, sp, lr}^
 4b4:	61747300 	cmnvs	r4, r0, lsl #6
 4b8:	70757472 	rsbsvc	r7, r5, r2, ror r4
 4bc:	61726400 	cmnvs	r2, r0, lsl #8
 4c0:	3a430077 	bcc	10c06a4 <startup-0x1ef3f95c>
 4c4:	6573552f 	ldrbvs	r5, [r3, #-1327]!	; 0xfffffad1
 4c8:	682f7372 	stmdavs	pc!, {r1, r4, r5, r6, r8, r9, ip, sp, lr}	; <UNPREDICTABLE>
 4cc:	79726e65 	ldmdbvc	r2!, {r0, r2, r5, r6, r9, sl, fp, sp, lr}^
 4d0:	656e4f2f 	strbvs	r4, [lr, #-3887]!	; 0xfffff0d1
 4d4:	76697244 	strbtvc	r7, [r9], -r4, asr #4
 4d8:	6b532f65 	blvs	14cc274 <startup-0x1eb33d8c>
 4dc:	62766972 	rsbsvs	r6, r6, #1867776	; 0x1c8000
 4e0:	2f64726f 	svccs	0x0064726f
 4e4:	31325456 	teqcc	r2, r6, asr r4
 4e8:	504f4d2f 	subpl	r4, pc, pc, lsr #26
 4ec:	504f4d2f 	subpl	r4, pc, pc, lsr #26
 4f0:	504f4d2f 	subpl	r4, pc, pc, lsr #26
 4f4:	616e732f 	cmnvs	lr, pc, lsr #6
 4f8:	672f656b 	strvs	r6, [pc, -fp, ror #10]!
 4fc:	2e656d61 	cdpcs	13, 6, cr6, cr5, cr1, {3}
 500:	626f0063 	rsbvs	r0, pc, #99	; 0x63
 504:	7463656a 	strbtvc	r6, [r3], #-1386	; 0xfffffa96
 508:	6c6f635f 	stclvs	3, cr6, [pc], #-380	; 394 <startup-0x1ffffc6c>
 50c:	6564696c 	strbvs	r6, [r4, #-2412]!	; 0xfffff694
 510:	61670073 	smcvs	28675	; 0x7003
 514:	6f5f656d 	svcvs	0x005f656d
 518:	00726576 	rsbseq	r6, r2, r6, ror r5
 51c:	5f746573 	svcpl	0x00746573
 520:	656a626f 	strbvs	r6, [sl, #-623]!	; 0xfffffd91
 524:	735f7463 	cmpvc	pc, #1660944384	; 0x63000000
 528:	64656570 	strbtvs	r6, [r5], #-1392	; 0xfffffa90
 52c:	61726700 	cmnvs	r2, r0, lsl #14
 530:	63696870 	cmnvs	r9, #112, 16	; 0x700000
 534:	696e695f 	stmdbvs	lr!, {r0, r1, r2, r3, r4, r6, r8, fp, sp, lr}^
 538:	696c6174 	stmdbvs	ip!, {r2, r4, r5, r6, r8, sp, lr}^
 53c:	6f00657a 	svcvs	0x0000657a
 540:	65736666 	ldrbvs	r6, [r3, #-1638]!	; 0xfffff99a
 544:	00793274 	rsbseq	r3, r9, r4, ror r2
 548:	6c707061 	ldclvs	0, cr7, [r0], #-388	; 0xfffffe7c
 54c:	65675f65 	strbvs	r5, [r7, #-3941]!	; 0xfffff09b
 550:	74656d6f 	strbtvc	r6, [r5], #-3439	; 0xfffff291
 554:	63007972 	movwvs	r7, #2418	; 0x972
 558:	7261656c 	rsbvc	r6, r1, #108, 10	; 0x1b000000
 55c:	6a626f5f 	bvs	189c2e0 <startup-0x1e763d20>
 560:	00746365 	rsbseq	r6, r4, r5, ror #6
 564:	6b616e73 	blvs	185bf38 <startup-0x1e7a40c8>
 568:	65675f65 	strbvs	r5, [r7, #-3941]!	; 0xfffff09b
 56c:	74656d6f 	strbtvc	r6, [r5], #-3439	; 0xfffff291
 570:	74007972 	strvc	r7, [r0], #-2418	; 0xfffff68e
 574:	006a624f 	rsbeq	r6, sl, pc, asr #4
 578:	6b616e73 	blvs	185bf4c <startup-0x1e7a40b4>
 57c:	6e004f65 	cdpvs	15, 0, cr4, cr0, cr5, {3}
 580:	6f706d75 	svcvs	0x00706d75
 584:	73746e69 	cmnvc	r4, #1680	; 0x690
 588:	61726700 	cmnvs	r2, r0, lsl #14
 58c:	63696870 	cmnvs	r9, #112, 16	; 0x700000
 590:	7869705f 	stmdavc	r9!, {r0, r1, r2, r3, r4, r6, ip, sp, lr}^
 594:	635f6c65 	cmpvs	pc, #25856	; 0x6500
 598:	7261656c 	rsbvc	r6, r1, #108, 10	; 0x1b000000
 59c:	424f5000 	submi	r5, pc, #0
 5a0:	5443454a 	strbpl	r4, [r3], #-1354	; 0xfffffab6
 5a4:	616e7300 	cmnvs	lr, r0, lsl #6
 5a8:	685f656b 	ldmdavs	pc, {r0, r1, r3, r5, r6, r8, sl, sp, lr}^	; <UNPREDICTABLE>
 5ac:	00646165 	rsbeq	r6, r4, r5, ror #2
 5b0:	70617267 	rsbvc	r7, r1, r7, ror #4
 5b4:	5f636968 	svcpl	0x00636968
 5b8:	61656c63 	cmnvs	r5, r3, ror #24
 5bc:	63735f72 	cmnvs	r3, #456	; 0x1c8
 5c0:	6e656572 	mcrvs	5, 3, r6, cr5, cr2, {3}
 5c4:	74636100 	strbtvc	r6, [r3], #-256	; 0xffffff00
 5c8:	74617669 	strbtvc	r7, [r1], #-1641	; 0xfffff997
 5cc:	776f5265 	strbvc	r5, [pc, -r5, ror #4]!
 5d0:	79656b00 	stmdbvc	r5!, {r8, r9, fp, sp, lr}^
 5d4:	65720062 	ldrbvs	r0, [r2, #-98]!	; 0xffffff9e
 5d8:	6f436461 	svcvs	0x00436461
 5dc:	3a43006c 	bcc	10c0794 <startup-0x1ef3f86c>
 5e0:	6573552f 	ldrbvs	r5, [r3, #-1327]!	; 0xfffffad1
 5e4:	452f7372 	strmi	r7, [pc, #-882]!	; 27a <startup-0x1ffffd86>
 5e8:	7361696c 	cmnvc	r1, #108, 18	; 0x1b0000
 5ec:	656e4f2f 	strbvs	r4, [lr, #-3887]!	; 0xfffff0d1
 5f0:	76697244 	strbtvc	r7, [r9], -r4, asr #4
 5f4:	202d2065 	eorcs	r2, sp, r5, rrx
 5f8:	6c616843 	stclvs	8, cr6, [r1], #-268	; 0xfffffef4
 5fc:	7372656d 	cmnvc	r2, #457179136	; 0x1b400000
 600:	75745320 	ldrbvc	r5, [r4, #-800]!	; 0xfffffce0
 604:	746e6564 	strbtvc	r6, [lr], #-1380	; 0xfffffa9c
 608:	6f442f73 	svcvs	0x00442f73
 60c:	656d7563 	strbvs	r7, [sp, #-1379]!	; 0xfffffa9d
 610:	2f73746e 	svccs	0x0073746e
 614:	64757453 	ldrbtvs	r7, [r5], #-1107	; 0xfffffbad
 618:	2f736569 	svccs	0x00736569
 61c:	676f7250 			; <UNDEFINED> instruction: 0x676f7250
 620:	696d6172 	stmdbvs	sp!, {r1, r4, r5, r6, r8, sp, lr}^
 624:	6d2f676e 	stcvs	7, cr6, [pc, #-440]!	; 474 <startup-0x1ffffb8c>
 628:	632f706f 			; <UNDEFINED> instruction: 0x632f706f
 62c:	6b726f57 	blvs	1c9c390 <startup-0x1e363c70>
 630:	63617053 	cmnvs	r1, #83	; 0x53
 634:	57632f65 	strbpl	r2, [r3, -r5, ror #30]!
 638:	536b726f 	cmnpl	fp, #-268435450	; 0xf0000006
 63c:	65636170 	strbvs	r6, [r3, #-368]!	; 0xfffffe90
 640:	616e732f 	cmnvs	lr, pc, lsr #6
 644:	6b2f656b 	blvs	bd9bf8 <startup-0x1f426408>
 648:	61707965 	cmnvs	r0, r5, ror #18
 64c:	00632e64 	rsbeq	r2, r3, r4, ror #28
 650:	74696e69 	strbtvc	r6, [r9], #-3689	; 0xfffff197
 654:	79656b5f 	stmdbvc	r5!, {r0, r1, r2, r3, r4, r6, r8, r9, fp, sp, lr}^
 658:	00646170 	rsbeq	r6, r4, r0, ror r1
 65c:	74696e69 	strbtvc	r6, [r9], #-3689	; 0xfffff197
 660:	6373615f 	cmnvs	r3, #-1073741801	; 0xc0000017
 664:	43006969 	movwmi	r6, #2409	; 0x969
 668:	73552f3a 	cmpvc	r5, #58, 30	; 0xe8
 66c:	2f737265 	svccs	0x00737265
 670:	61696c45 	cmnvs	r9, r5, asr #24
 674:	6e4f2f73 	mcrvs	15, 2, r2, cr15, cr3, {3}
 678:	69724465 	ldmdbvs	r2!, {r0, r2, r5, r6, sl, lr}^
 67c:	2d206576 	cfstr32cs	mvfx6, [r0, #-472]!	; 0xfffffe28
 680:	61684320 	cmnvs	r8, r0, lsr #6
 684:	72656d6c 	rsbvc	r6, r5, #108, 26	; 0x1b00
 688:	74532073 	ldrbvc	r2, [r3], #-115	; 0xffffff8d
 68c:	6e656475 	mcrvs	4, 3, r6, cr5, cr5, {3}
 690:	442f7374 	strtmi	r7, [pc], #-884	; 698 <startup-0x1ffff968>
 694:	6d75636f 	ldclvs	3, cr6, [r5, #-444]!	; 0xfffffe44
 698:	73746e65 	cmnvc	r4, #1616	; 0x650
 69c:	7574532f 	ldrbvc	r5, [r4, #-815]!	; 0xfffffcd1
 6a0:	73656964 	cmnvc	r5, #100, 18	; 0x190000
 6a4:	6f72502f 	svcvs	0x0072502f
 6a8:	6d617267 	sfmvs	f7, 2, [r1, #-412]!	; 0xfffffe64
 6ac:	2f676e69 	svccs	0x00676e69
 6b0:	2f706f6d 	svccs	0x00706f6d
 6b4:	726f5763 	rsbvc	r5, pc, #25952256	; 0x18c0000
 6b8:	6170536b 	cmnvs	r0, fp, ror #6
 6bc:	632f6563 			; <UNDEFINED> instruction: 0x632f6563
 6c0:	6b726f57 	blvs	1c9c424 <startup-0x1e363bdc>
 6c4:	63617053 	cmnvs	r1, #83	; 0x53
 6c8:	6e732f65 	cdpvs	15, 7, cr2, cr3, cr5, {3}
 6cc:	2f656b61 	svccs	0x00656b61
 6d0:	74696e69 	strbtvc	r6, [r9], #-3689	; 0xfffff197
 6d4:	6900632e 	stmdbvs	r0, {r1, r2, r3, r5, r8, r9, sp, lr}
 6d8:	5f74696e 	svcpl	0x0074696e
 6dc:	656d6974 	strbvs	r6, [sp, #-2420]!	; 0xfffff68c
 6e0:	Address 0x000006e0 is out of bounds.


Disassembly of section .comment:

00000000 <.comment>:
   0:	3a434347 	bcc	10d0d24 <startup-0x1ef2f2dc>
   4:	4e472820 	cdpmi	8, 4, cr2, cr7, cr0, {1}
   8:	6f542055 	svcvs	0x00542055
   c:	20736c6f 	rsbscs	r6, r3, pc, ror #24
  10:	20726f66 	rsbscs	r6, r2, r6, ror #30
  14:	206d7241 	rsbcs	r7, sp, r1, asr #4
  18:	65626d45 	strbvs	r6, [r2, #-3397]!	; 0xfffff2bb
  1c:	64656464 	strbtvs	r6, [r5], #-1124	; 0xfffffb9c
  20:	6f725020 	svcvs	0x00725020
  24:	73736563 	cmnvc	r3, #415236096	; 0x18c00000
  28:	2073726f 	rsbscs	r7, r3, pc, ror #4
  2c:	30322d39 	eorscc	r2, r2, r9, lsr sp
  30:	712d3931 			; <UNDEFINED> instruction: 0x712d3931
  34:	616d2d34 	cmnvs	sp, r4, lsr sp
  38:	29726f6a 	ldmdbcs	r2!, {r1, r3, r5, r6, r8, r9, sl, fp, sp, lr}^
  3c:	322e3920 	eorcc	r3, lr, #32, 18	; 0x80000
  40:	3220312e 	eorcc	r3, r0, #-2147483637	; 0x8000000b
  44:	31393130 	teqcc	r9, r0, lsr r1
  48:	20353230 	eorscs	r3, r5, r0, lsr r2
  4c:	6c657228 	sfmvs	f7, 2, [r5], #-160	; 0xffffff60
  50:	65736165 	ldrbvs	r6, [r3, #-357]!	; 0xfffffe9b
  54:	415b2029 	cmpmi	fp, r9, lsr #32
  58:	612f4d52 			; <UNDEFINED> instruction: 0x612f4d52
  5c:	392d6d72 	pushcc	{r1, r4, r5, r6, r8, sl, fp, sp, lr}
  60:	6172622d 	cmnvs	r2, sp, lsr #4
  64:	2068636e 	rsbcs	r6, r8, lr, ror #6
  68:	69766572 	ldmdbvs	r6!, {r1, r4, r5, r6, r8, sl, sp, lr}^
  6c:	6e6f6973 			; <UNDEFINED> instruction: 0x6e6f6973
  70:	37373220 	ldrcc	r3, [r7, -r0, lsr #4]!
  74:	5d393935 			; <UNDEFINED> instruction: 0x5d393935
	...

Disassembly of section .ARM.attributes:

00000000 <.ARM.attributes>:
   0:	00002b41 	andeq	r2, r0, r1, asr #22
   4:	61656100 	cmnvs	r5, r0, lsl #2
   8:	01006962 	tsteq	r0, r2, ror #18
   c:	00000021 	andeq	r0, r0, r1, lsr #32
  10:	2d533605 	ldclcs	6, cr3, [r3, #-20]	; 0xffffffec
  14:	0c06004d 	stceq	0, cr0, [r6], {77}	; 0x4d
  18:	01094d07 	tsteq	r9, r7, lsl #26
  1c:	01140412 	tsteq	r4, r2, lsl r4
  20:	03170115 	tsteq	r7, #1073741829	; 0x40000005
  24:	01190118 	tsteq	r9, r8, lsl r1
  28:	061e011a 			; <UNDEFINED> instruction: 0x061e011a

Disassembly of section .debug_frame:

00000000 <.debug_frame>:
   0:	0000000c 	andeq	r0, r0, ip
   4:	ffffffff 			; <UNDEFINED> instruction: 0xffffffff
   8:	7c020001 	stcvc	0, cr0, [r2], {1}
   c:	000d0c0e 	andeq	r0, sp, lr, lsl #24
  10:	00000018 	andeq	r0, r0, r8, lsl r0
  14:	00000000 	andeq	r0, r0, r0
  18:	20000010 	andcs	r0, r0, r0, lsl r0
  1c:	00000044 	andeq	r0, r0, r4, asr #32
  20:	87080e41 	strhi	r0, [r8, -r1, asr #28]
  24:	41018e02 	tstmi	r1, r2, lsl #28
  28:	0000070d 	andeq	r0, r0, sp, lsl #14
  2c:	0000001c 	andeq	r0, r0, ip, lsl r0
  30:	00000000 	andeq	r0, r0, r0
  34:	20000054 	andcs	r0, r0, r4, asr r0
  38:	0000004c 	andeq	r0, r0, ip, asr #32
  3c:	87080e41 	strhi	r0, [r8, -r1, asr #28]
  40:	41018e02 	tstmi	r1, r2, lsl #28
  44:	0d41180e 	stcleq	8, cr1, [r1, #-56]	; 0xffffffc8
  48:	00000007 	andeq	r0, r0, r7
  4c:	0000001c 	andeq	r0, r0, ip, lsl r0
  50:	00000000 	andeq	r0, r0, r0
  54:	200000a0 	andcs	r0, r0, r0, lsr #1
  58:	00000026 	andeq	r0, r0, r6, lsr #32
  5c:	87080e41 	strhi	r0, [r8, -r1, asr #28]
  60:	41018e02 	tstmi	r1, r2, lsl #28
  64:	0d41100e 	stcleq	0, cr1, [r1, #-56]	; 0xffffffc8
  68:	00000007 	andeq	r0, r0, r7
  6c:	0000001c 	andeq	r0, r0, ip, lsl r0
  70:	00000000 	andeq	r0, r0, r0
  74:	200000c6 	andcs	r0, r0, r6, asr #1
  78:	0000004e 	andeq	r0, r0, lr, asr #32
  7c:	87080e41 	strhi	r0, [r8, -r1, asr #28]
  80:	41018e02 	tstmi	r1, r2, lsl #28
  84:	0d41180e 	stcleq	8, cr1, [r1, #-56]	; 0xffffffc8
  88:	00000007 	andeq	r0, r0, r7
  8c:	0000000c 	andeq	r0, r0, ip
  90:	ffffffff 			; <UNDEFINED> instruction: 0xffffffff
  94:	7c020001 	stcvc	0, cr0, [r2], {1}
  98:	000d0c0e 	andeq	r0, sp, lr, lsl #24
  9c:	0000001c 	andeq	r0, r0, ip, lsl r0
  a0:	0000008c 	andeq	r0, r0, ip, lsl #1
  a4:	20000114 	andcs	r0, r0, r4, lsl r1
  a8:	00000038 	andeq	r0, r0, r8, lsr r0
  ac:	87080e41 	strhi	r0, [r8, -r1, asr #28]
  b0:	41018e02 	tstmi	r1, r2, lsl #28
  b4:	0d41180e 	stcleq	8, cr1, [r1, #-56]	; 0xffffffc8
  b8:	00000007 	andeq	r0, r0, r7
  bc:	0000001c 	andeq	r0, r0, ip, lsl r0
  c0:	0000008c 	andeq	r0, r0, ip, lsl #1
  c4:	2000014c 	andcs	r0, r0, ip, asr #2
  c8:	00000048 	andeq	r0, r0, r8, asr #32
  cc:	87080e41 	strhi	r0, [r8, -r1, asr #28]
  d0:	41018e02 	tstmi	r1, r2, lsl #28
  d4:	0d41180e 	stcleq	8, cr1, [r1, #-56]	; 0xffffffc8
  d8:	00000007 	andeq	r0, r0, r7
  dc:	0000001c 	andeq	r0, r0, ip, lsl r0
  e0:	0000008c 	andeq	r0, r0, ip, lsl #1
  e4:	20000194 	mulcs	r0, r4, r1
  e8:	00000030 	andeq	r0, r0, r0, lsr r0
  ec:	87080e41 	strhi	r0, [r8, -r1, asr #28]
  f0:	41018e02 	tstmi	r1, r2, lsl #28
  f4:	0d41100e 	stcleq	0, cr1, [r1, #-56]	; 0xffffffc8
  f8:	00000007 	andeq	r0, r0, r7
  fc:	0000001c 	andeq	r0, r0, ip, lsl r0
 100:	0000008c 	andeq	r0, r0, ip, lsl #1
 104:	200001c4 	andcs	r0, r0, r4, asr #3
 108:	0000002c 	andeq	r0, r0, ip, lsr #32
 10c:	87080e41 	strhi	r0, [r8, -r1, asr #28]
 110:	41018e02 	tstmi	r1, r2, lsl #28
 114:	0d41100e 	stcleq	0, cr1, [r1, #-56]	; 0xffffffc8
 118:	00000007 	andeq	r0, r0, r7
 11c:	0000001c 	andeq	r0, r0, ip, lsl r0
 120:	0000008c 	andeq	r0, r0, ip, lsl #1
 124:	200001f0 	strdcs	r0, [r0], -r0	; <UNPREDICTABLE>
 128:	0000002a 	andeq	r0, r0, sl, lsr #32
 12c:	87080e41 	strhi	r0, [r8, -r1, asr #28]
 130:	41018e02 	tstmi	r1, r2, lsl #28
 134:	0d41100e 	stcleq	0, cr1, [r1, #-56]	; 0xffffffc8
 138:	00000007 	andeq	r0, r0, r7
 13c:	0000001c 	andeq	r0, r0, ip, lsl r0
 140:	0000008c 	andeq	r0, r0, ip, lsl #1
 144:	2000021a 	andcs	r0, r0, sl, lsl r2
 148:	0000002a 	andeq	r0, r0, sl, lsr #32
 14c:	87080e41 	strhi	r0, [r8, -r1, asr #28]
 150:	41018e02 	tstmi	r1, r2, lsl #28
 154:	0d41100e 	stcleq	0, cr1, [r1, #-56]	; 0xffffffc8
 158:	00000007 	andeq	r0, r0, r7
 15c:	0000001c 	andeq	r0, r0, ip, lsl r0
 160:	0000008c 	andeq	r0, r0, ip, lsl #1
 164:	20000244 	andcs	r0, r0, r4, asr #4
 168:	00000040 	andeq	r0, r0, r0, asr #32
 16c:	840c0e41 	strhi	r0, [ip], #-3649	; 0xfffff1bf
 170:	8e028703 	cdphi	7, 0, cr8, cr2, cr3, {0}
 174:	180e4101 	stmdane	lr, {r0, r8, lr}
 178:	00070d41 	andeq	r0, r7, r1, asr #26
 17c:	0000001c 	andeq	r0, r0, ip, lsl r0
 180:	0000008c 	andeq	r0, r0, ip, lsl #1
 184:	20000284 	andcs	r0, r0, r4, lsl #5
 188:	00000048 	andeq	r0, r0, r8, asr #32
 18c:	840c0e41 	strhi	r0, [ip], #-3649	; 0xfffff1bf
 190:	8e028703 	cdphi	7, 0, cr8, cr2, cr3, {0}
 194:	180e4101 	stmdane	lr, {r0, r8, lr}
 198:	00070d41 	andeq	r0, r7, r1, asr #26
 19c:	0000001c 	andeq	r0, r0, ip, lsl r0
 1a0:	0000008c 	andeq	r0, r0, ip, lsl #1
 1a4:	200002cc 	andcs	r0, r0, ip, asr #5
 1a8:	00000036 	andeq	r0, r0, r6, lsr r0
 1ac:	87080e41 	strhi	r0, [r8, -r1, asr #28]
 1b0:	41018e02 	tstmi	r1, r2, lsl #28
 1b4:	0d41100e 	stcleq	0, cr1, [r1, #-56]	; 0xffffffc8
 1b8:	00000007 	andeq	r0, r0, r7
 1bc:	00000018 	andeq	r0, r0, r8, lsl r0
 1c0:	0000008c 	andeq	r0, r0, ip, lsl #1
 1c4:	20000302 	andcs	r0, r0, r2, lsl #6
 1c8:	0000003a 	andeq	r0, r0, sl, lsr r0
 1cc:	87080e41 	strhi	r0, [r8, -r1, asr #28]
 1d0:	41018e02 	tstmi	r1, r2, lsl #28
 1d4:	0000070d 	andeq	r0, r0, sp, lsl #14
 1d8:	0000001c 	andeq	r0, r0, ip, lsl r0
 1dc:	0000008c 	andeq	r0, r0, ip, lsl #1
 1e0:	2000033c 	andcs	r0, r0, ip, lsr r3
 1e4:	0000003c 	andeq	r0, r0, ip, lsr r0
 1e8:	87080e41 	strhi	r0, [r8, -r1, asr #28]
 1ec:	41018e02 	tstmi	r1, r2, lsl #28
 1f0:	0d41100e 	stcleq	0, cr1, [r1, #-56]	; 0xffffffc8
 1f4:	00000007 	andeq	r0, r0, r7
 1f8:	0000001c 	andeq	r0, r0, ip, lsl r0
 1fc:	0000008c 	andeq	r0, r0, ip, lsl #1
 200:	20000378 	andcs	r0, r0, r8, ror r3
 204:	0000004c 	andeq	r0, r0, ip, asr #32
 208:	87080e41 	strhi	r0, [r8, -r1, asr #28]
 20c:	41018e02 	tstmi	r1, r2, lsl #28
 210:	0d41180e 	stcleq	8, cr1, [r1, #-56]	; 0xffffffc8
 214:	00000007 	andeq	r0, r0, r7
 218:	0000001c 	andeq	r0, r0, ip, lsl r0
 21c:	0000008c 	andeq	r0, r0, ip, lsl #1
 220:	200003c4 	andcs	r0, r0, r4, asr #7
 224:	00000060 	andeq	r0, r0, r0, rrx
 228:	87080e41 	strhi	r0, [r8, -r1, asr #28]
 22c:	41018e02 	tstmi	r1, r2, lsl #28
 230:	0d41180e 	stcleq	8, cr1, [r1, #-56]	; 0xffffffc8
 234:	00000007 	andeq	r0, r0, r7
 238:	0000000c 	andeq	r0, r0, ip
 23c:	ffffffff 			; <UNDEFINED> instruction: 0xffffffff
 240:	7c020001 	stcvc	0, cr0, [r2], {1}
 244:	000d0c0e 	andeq	r0, sp, lr, lsl #24
 248:	0000000c 	andeq	r0, r0, ip
 24c:	00000238 	andeq	r0, r0, r8, lsr r2
 250:	20000000 	andcs	r0, r0, r0
 254:	0000000c 	andeq	r0, r0, ip
 258:	0000000c 	andeq	r0, r0, ip
 25c:	00000238 	andeq	r0, r0, r8, lsr r2
 260:	20000424 	andcs	r0, r0, r4, lsr #8
 264:	00000006 	andeq	r0, r0, r6
 268:	0000000c 	andeq	r0, r0, ip
 26c:	00000238 	andeq	r0, r0, r8, lsr r2
 270:	2000042a 	andcs	r0, r0, sl, lsr #8
 274:	00000006 	andeq	r0, r0, r6
 278:	0000000c 	andeq	r0, r0, ip
 27c:	00000238 	andeq	r0, r0, r8, lsr r2
 280:	20000430 	andcs	r0, r0, r0, lsr r4
 284:	00000006 	andeq	r0, r0, r6
 288:	0000000c 	andeq	r0, r0, ip
 28c:	00000238 	andeq	r0, r0, r8, lsr r2
 290:	20000436 	andcs	r0, r0, r6, lsr r4
 294:	00000006 	andeq	r0, r0, r6
 298:	0000001c 	andeq	r0, r0, ip, lsl r0
 29c:	00000238 	andeq	r0, r0, r8, lsr r2
 2a0:	2000043c 	andcs	r0, r0, ip, lsr r4
 2a4:	00000082 	andeq	r0, r0, r2, lsl #1
 2a8:	840c0e41 	strhi	r0, [ip], #-3649	; 0xfffff1bf
 2ac:	8e028703 	cdphi	7, 0, cr8, cr2, cr3, {0}
 2b0:	280e4101 	stmdacs	lr, {r0, r8, lr}
 2b4:	00070d41 	andeq	r0, r7, r1, asr #26
 2b8:	0000001c 	andeq	r0, r0, ip, lsl r0
 2bc:	00000238 	andeq	r0, r0, r8, lsr r2
 2c0:	200004be 			; <UNDEFINED> instruction: 0x200004be
 2c4:	00000082 	andeq	r0, r0, r2, lsl #1
 2c8:	840c0e41 	strhi	r0, [ip], #-3649	; 0xfffff1bf
 2cc:	8e028703 	cdphi	7, 0, cr8, cr2, cr3, {0}
 2d0:	280e4101 	stmdacs	lr, {r0, r8, lr}
 2d4:	00070d41 	andeq	r0, r7, r1, asr #26
 2d8:	0000001c 	andeq	r0, r0, ip, lsl r0
 2dc:	00000238 	andeq	r0, r0, r8, lsr r2
 2e0:	20000540 	andcs	r0, r0, r0, asr #10
 2e4:	00000020 	andeq	r0, r0, r0, lsr #32
 2e8:	87080e41 	strhi	r0, [r8, -r1, asr #28]
 2ec:	41018e02 	tstmi	r1, r2, lsl #28
 2f0:	0d41180e 	stcleq	8, cr1, [r1, #-56]	; 0xffffffc8
 2f4:	00000007 	andeq	r0, r0, r7
 2f8:	0000001c 	andeq	r0, r0, ip, lsl r0
 2fc:	00000238 	andeq	r0, r0, r8, lsr r2
 300:	20000560 	andcs	r0, r0, r0, ror #10
 304:	00000042 	andeq	r0, r0, r2, asr #32
 308:	87080e41 	strhi	r0, [r8, -r1, asr #28]
 30c:	41018e02 	tstmi	r1, r2, lsl #28
 310:	0d41100e 	stcleq	0, cr1, [r1, #-56]	; 0xffffffc8
 314:	00000007 	andeq	r0, r0, r7
 318:	0000001c 	andeq	r0, r0, ip, lsl r0
 31c:	00000238 	andeq	r0, r0, r8, lsr r2
 320:	200005a2 	andcs	r0, r0, r2, lsr #11
 324:	0000003c 	andeq	r0, r0, ip, lsr r0
 328:	87080e41 	strhi	r0, [r8, -r1, asr #28]
 32c:	41018e02 	tstmi	r1, r2, lsl #28
 330:	0d41100e 	stcleq	0, cr1, [r1, #-56]	; 0xffffffc8
 334:	00000007 	andeq	r0, r0, r7
 338:	0000001c 	andeq	r0, r0, ip, lsl r0
 33c:	00000238 	andeq	r0, r0, r8, lsr r2
 340:	200005de 	ldrdcs	r0, [r0], -lr
 344:	00000056 	andeq	r0, r0, r6, asr r0
 348:	87080e41 	strhi	r0, [r8, -r1, asr #28]
 34c:	41018e02 	tstmi	r1, r2, lsl #28
 350:	0d41180e 	stcleq	8, cr1, [r1, #-56]	; 0xffffffc8
 354:	00000007 	andeq	r0, r0, r7
 358:	0000001c 	andeq	r0, r0, ip, lsl r0
 35c:	00000238 	andeq	r0, r0, r8, lsr r2
 360:	20000634 	andcs	r0, r0, r4, lsr r6
 364:	000000c0 	andeq	r0, r0, r0, asr #1
 368:	87080e41 	strhi	r0, [r8, -r1, asr #28]
 36c:	41018e02 	tstmi	r1, r2, lsl #28
 370:	0d41280e 	stcleq	8, cr2, [r1, #-56]	; 0xffffffc8
 374:	00000007 	andeq	r0, r0, r7
 378:	0000001c 	andeq	r0, r0, ip, lsl r0
 37c:	00000238 	andeq	r0, r0, r8, lsr r2
 380:	200006f4 	strdcs	r0, [r0], -r4
 384:	0000002e 	andeq	r0, r0, lr, lsr #32
 388:	87080e41 	strhi	r0, [r8, -r1, asr #28]
 38c:	41018e02 	tstmi	r1, r2, lsl #28
 390:	0d41100e 	stcleq	0, cr1, [r1, #-56]	; 0xffffffc8
 394:	00000007 	andeq	r0, r0, r7
 398:	0000001c 	andeq	r0, r0, ip, lsl r0
 39c:	00000238 	andeq	r0, r0, r8, lsr r2
 3a0:	20000722 	andcs	r0, r0, r2, lsr #14
 3a4:	00000036 	andeq	r0, r0, r6, lsr r0
 3a8:	87080e41 	strhi	r0, [r8, -r1, asr #28]
 3ac:	41018e02 	tstmi	r1, r2, lsl #28
 3b0:	0d41100e 	stcleq	0, cr1, [r1, #-56]	; 0xffffffc8
 3b4:	00000007 	andeq	r0, r0, r7
 3b8:	00000020 	andeq	r0, r0, r0, lsr #32
 3bc:	00000238 	andeq	r0, r0, r8, lsr r2
 3c0:	20000758 	andcs	r0, r0, r8, asr r7
 3c4:	00000118 	andeq	r0, r0, r8, lsl r1
 3c8:	84100e41 	ldrhi	r0, [r0], #-3649	; 0xfffff1bf
 3cc:	87038504 	strhi	r8, [r3, -r4, lsl #10]
 3d0:	41018e02 	tstmi	r1, r2, lsl #28
 3d4:	0d41280e 	stcleq	8, cr2, [r1, #-56]	; 0xffffffc8
 3d8:	00000007 	andeq	r0, r0, r7
 3dc:	0000000c 	andeq	r0, r0, ip
 3e0:	ffffffff 			; <UNDEFINED> instruction: 0xffffffff
 3e4:	7c020001 	stcvc	0, cr0, [r2], {1}
 3e8:	000d0c0e 	andeq	r0, sp, lr, lsl #24
 3ec:	0000001c 	andeq	r0, r0, ip, lsl r0
 3f0:	000003dc 	ldrdeq	r0, [r0], -ip
 3f4:	20000870 	andcs	r0, r0, r0, ror r8
 3f8:	00000064 	andeq	r0, r0, r4, rrx
 3fc:	87080e41 	strhi	r0, [r8, -r1, asr #28]
 400:	41018e02 	tstmi	r1, r2, lsl #28
 404:	0d41100e 	stcleq	0, cr1, [r1, #-56]	; 0xffffffc8
 408:	00000007 	andeq	r0, r0, r7
 40c:	0000001c 	andeq	r0, r0, ip, lsl r0
 410:	000003dc 	ldrdeq	r0, [r0], -ip
 414:	200008d4 	ldrdcs	r0, [r0], -r4
 418:	00000054 	andeq	r0, r0, r4, asr r0
 41c:	87080e41 	strhi	r0, [r8, -r1, asr #28]
 420:	41018e02 	tstmi	r1, r2, lsl #28
 424:	0d41100e 	stcleq	0, cr1, [r1, #-56]	; 0xffffffc8
 428:	00000007 	andeq	r0, r0, r7
 42c:	0000001c 	andeq	r0, r0, ip, lsl r0
 430:	000003dc 	ldrdeq	r0, [r0], -ip
 434:	20000928 	andcs	r0, r0, r8, lsr #18
 438:	00000068 	andeq	r0, r0, r8, rrx
 43c:	840c0e41 	strhi	r0, [ip], #-3649	; 0xfffff1bf
 440:	8e028703 	cdphi	7, 0, cr8, cr2, cr3, {0}
 444:	280e4101 	stmdacs	lr, {r0, r8, lr}
 448:	00070d41 	andeq	r0, r7, r1, asr #26
 44c:	0000000c 	andeq	r0, r0, ip
 450:	ffffffff 			; <UNDEFINED> instruction: 0xffffffff
 454:	7c020001 	stcvc	0, cr0, [r2], {1}
 458:	000d0c0e 	andeq	r0, sp, lr, lsl #24
 45c:	00000018 	andeq	r0, r0, r8, lsl r0
 460:	0000044c 	andeq	r0, r0, ip, asr #8
 464:	20000990 	mulcs	r0, r0, r9
 468:	0000002c 	andeq	r0, r0, ip, lsr #32
 46c:	87080e41 	strhi	r0, [r8, -r1, asr #28]
 470:	41018e02 	tstmi	r1, r2, lsl #28
 474:	0000070d 	andeq	r0, r0, sp, lsl #14
 478:	00000018 	andeq	r0, r0, r8, lsl r0
 47c:	0000044c 	andeq	r0, r0, ip, asr #8
 480:	200009bc 			; <UNDEFINED> instruction: 0x200009bc
 484:	00000028 	andeq	r0, r0, r8, lsr #32
 488:	87080e41 	strhi	r0, [r8, -r1, asr #28]
 48c:	41018e02 	tstmi	r1, r2, lsl #28
 490:	0000070d 	andeq	r0, r0, sp, lsl #14
 494:	00000018 	andeq	r0, r0, r8, lsl r0
 498:	0000044c 	andeq	r0, r0, ip, asr #8
 49c:	200009e4 	andcs	r0, r0, r4, ror #19
 4a0:	0000003c 	andeq	r0, r0, ip, lsr r0
 4a4:	87080e41 	strhi	r0, [r8, -r1, asr #28]
 4a8:	41018e02 	tstmi	r1, r2, lsl #28
 4ac:	0000070d 	andeq	r0, r0, sp, lsl #14
 4b0:	00000018 	andeq	r0, r0, r8, lsl r0
 4b4:	0000044c 	andeq	r0, r0, ip, asr #8
 4b8:	20000a20 	andcs	r0, r0, r0, lsr #20
 4bc:	00000016 	andeq	r0, r0, r6, lsl r0
 4c0:	87080e41 	strhi	r0, [r8, -r1, asr #28]
 4c4:	41018e02 	tstmi	r1, r2, lsl #28
 4c8:	0000070d 	andeq	r0, r0, sp, lsl #14
 4cc:	0000000c 	andeq	r0, r0, ip
 4d0:	ffffffff 			; <UNDEFINED> instruction: 0xffffffff
 4d4:	7c010001 	stcvc	0, cr0, [r1], {1}
 4d8:	000d0c0e 	andeq	r0, sp, lr, lsl #24
 4dc:	0000000c 	andeq	r0, r0, ip
 4e0:	000004cc 	andeq	r0, r0, ip, asr #9
 4e4:	20000a39 	andcs	r0, r0, r9, lsr sl
 4e8:	0000010a 	andeq	r0, r0, sl, lsl #2
 4ec:	0000000c 	andeq	r0, r0, ip
 4f0:	ffffffff 			; <UNDEFINED> instruction: 0xffffffff
 4f4:	7c010001 	stcvc	0, cr0, [r1], {1}
 4f8:	000d0c0e 	andeq	r0, sp, lr, lsl #24
 4fc:	0000000c 	andeq	r0, r0, ip
 500:	000004ec 	andeq	r0, r0, ip, ror #9
 504:	20000b4d 	andcs	r0, r0, sp, asr #22
 508:	000001cc 	andeq	r0, r0, ip, asr #3

Disassembly of section .debug_ranges:

00000000 <.debug_ranges>:
   0:	20000424 	andcs	r0, r0, r4, lsr #8
   4:	20000870 	andcs	r0, r0, r0, ror r8
   8:	20000000 	andcs	r0, r0, r0
   c:	2000000c 	andcs	r0, r0, ip
	...
